

Microchip MPLAB XC8 Assembler V2.40 build 20220703182018 
                                                                                               Thu Jun 15 00:01:45 2023

Microchip MPLAB XC8 C Compiler v2.40 (Free license) build 20220703182018 Og1 
     1                           	processor	18F4620
     2                           	fnconf	rparam,??,?,0
     3                           	pagewidth 120
     4                           	opt	flic
     5                           	psect	idataCOMRAM,global,class=CODE,delta=1,noexec
     6                           	psect	cinit,global,reloc=2,class=CODE,delta=1
     7                           	psect	bssCOMRAM,global,class=COMRAM,space=1,delta=1,lowdata,noexec
     8                           	psect	dataCOMRAM,global,class=COMRAM,space=1,delta=1,lowdata,noexec
     9                           	psect	cstackCOMRAM,global,class=COMRAM,space=1,delta=1,lowdata,noexec
    10                           	psect	text0,global,reloc=2,class=CODE,delta=1
    11                           	psect	text1,global,reloc=2,class=CODE,delta=1
    12                           	psect	text2,global,reloc=2,class=CODE,delta=1
    13                           	psect	text3,global,reloc=2,class=CODE,delta=1
    14                           	psect	text4,global,reloc=2,class=CODE,delta=1
    15                           	psect	text5,global,reloc=2,class=CODE,delta=1
    16                           	psect	text6,global,reloc=2,class=CODE,delta=1
    17                           	psect	text7,global,reloc=2,class=CODE,delta=1
    18                           	psect	text8,global,reloc=2,class=CODE,delta=1
    19                           	psect	text9,global,reloc=2,class=CODE,delta=1
    20                           	psect	text10,global,reloc=2,class=CODE,delta=1,inline
    21                           	psect	text11,global,reloc=2,class=CODE,delta=1,inline
    22                           	psect	text12,global,reloc=2,class=CODE,delta=1,inline
    23                           	psect	intcode,global,reloc=2,class=CODE,delta=1
    24                           	psect	intcode_body,global,reloc=2,class=CODE,delta=1
    25                           	psect	text14,global,reloc=2,class=CODE,delta=1
    26                           	psect	text15,global,reloc=2,class=CODE,delta=1
    27                           	psect	text16,global,reloc=2,class=CODE,delta=1
    28                           	psect	text17,global,reloc=2,class=CODE,delta=1
    29                           	psect	intsave_regs,global,class=BIGRAM,space=1,delta=1,noexec
    30                           	psect	text18,global,reloc=2,class=CODE,delta=1
    31                           	psect	rparam,global,class=COMRAM,space=1,delta=1,noexec
    32                           	psect	temp,global,ovrld,common,class=COMRAM,space=1,delta=1
    33                           	psect	idloc,global,abs,ovrld,class=IDLOC,space=5,delta=1,noexec
    34                           	psect	config,global,abs,ovrld,class=CONFIG,space=4,delta=1,noexec
    35   000000                     
    36                           ; Version 2.40
    37                           ; Generated 17/11/2021 GMT
    38                           ; 
    39                           ; Copyright © 2021, Microchip Technology Inc. and its subsidiaries ("Microchip")
    40                           ; All rights reserved.
    41                           ; 
    42                           ; This software is developed by Microchip Technology Inc. and its subsidiaries ("Microch
      +                          ip").
    43                           ; 
    44                           ; Redistribution and use in source and binary forms, with or without modification, are
    45                           ; permitted provided that the following conditions are met:
    46                           ; 
    47                           ;     1. Redistributions of source code must retain the above copyright notice, this lis
      +                          t of
    48                           ;        conditions and the following disclaimer.
    49                           ; 
    50                           ;     2. Redistributions in binary form must reproduce the above copyright notice, this 
      +                          list
    51                           ;        of conditions and the following disclaimer in the documentation and/or other
    52                           ;        materials provided with the distribution. Publication is not required when
    53                           ;        this file is used in an embedded application.
    54                           ; 
    55                           ;     3. Microchip's name may not be used to endorse or promote products derived from th
      +                          is
    56                           ;        software without specific prior written permission.
    57                           ; 
    58                           ; THIS SOFTWARE IS PROVIDED BY MICROCHIP "AS IS" AND ANY EXPRESS OR IMPLIED WARRANTIES,
    59                           ; INCLUDING, BUT NOT LIMITED TO, THE IMPLIED WARRANTIES OF MERCHANTABILITY AND FITNESS F
      +                          OR
    60                           ; PURPOSE ARE DISCLAIMED.  IN NO EVENT SHALL MICROCHIP BE LIABLE FOR ANY DIRECT, INDIREC
      +                          T,
    61                           ; INCIDENTAL, SPECIAL, EXEMPLARY, OR CONSEQUENTIAL DAMAGES (INCLUDING BUT NOT LIMITED TO
    62                           ; PROCUREMENT OF SUBSTITUTE GOODS OR SERVICES; LOSS OF USE, DATA OR PROFITS; OR BUSINESS
    63                           ; INTERRUPTION) HOWSOEVER CAUSED AND ON ANY THEORY OF LIABILITY, WHETHER IN CONTRACT, ST
      +                          RICT
    64                           ; LIABILITY, OR TORT (INCLUDING NEGLIGENCE OR OTHERWISE) ARISING IN ANY WAY OUT OF THE U
      +                          SE OF
    65                           ; THIS SOFTWARE, EVEN IF ADVISED OF THE POSSIBILITY OF SUCH DAMAGE.
    66                           ; 
    67                           ; 
    68                           ; Code-generator required, PIC18F4620 Definitions
    69                           ; 
    70                           ; SFR Addresses
    71   000000                     
    72                           	psect	idataCOMRAM
    73   00090C                     __pidataCOMRAM:
    74                           	callstack 0
    75                           
    76                           ;initializer for _port_registers
    77   00090C  80                 	db	128
    78   00090D  0F                 	db	15
    79   00090E  81                 	db	129
    80   00090F  0F                 	db	15
    81   000910  82                 	db	130
    82   000911  0F                 	db	15
    83   000912  83                 	db	131
    84   000913  0F                 	db	15
    85   000914  84                 	db	132
    86   000915  0F                 	db	15
    87                           
    88                           ;initializer for _lat_registers
    89   000916  89                 	db	137
    90   000917  0F                 	db	15
    91   000918  8A                 	db	138
    92   000919  0F                 	db	15
    93   00091A  8B                 	db	139
    94   00091B  0F                 	db	15
    95   00091C  8C                 	db	140
    96   00091D  0F                 	db	15
    97   00091E  8D                 	db	141
    98   00091F  0F                 	db	15
    99                           
   100                           ;initializer for _tris_registers
   101   000920  92                 	db	146
   102   000921  0F                 	db	15
   103   000922  93                 	db	147
   104   000923  0F                 	db	15
   105   000924  94                 	db	148
   106   000925  0F                 	db	15
   107   000926  95                 	db	149
   108   000927  0F                 	db	15
   109   000928  96                 	db	150
   110   000929  0F                 	db	15
   111                           
   112                           ;initializer for _u8ValueOfSeg
   113   00092A  09                 	db	9
   114                           
   115                           ;initializer for _TimerDelay
   116   00092B  64                 	db	low _Timer0Interrupt
   117   00092C  09                 	db	high _Timer0Interrupt
   118   00092D  00                 	db	0
   119   00092E  FF9C               	dw	65436
   120   000930  0A                 	db	10
   121                           
   122                           ;initializer for _SegObj
   123   000931  01                 	db	1
   124   000932  09                 	db	9
   125   000933  11                 	db	17
   126   000934  19                 	db	25
   127   000935  00                 	db	0
   128                           
   129                           ;initializer for _Timer1Obj
   130   000936  3E                 	db	low _Timer1InterruptHandler
   131   000937  09                 	db	high _Timer1InterruptHandler
   132   000938  B1E0               	dw	45536
   133   00093A  20                 	db	32
   134                           
   135                           ;initializer for _LedRed
   136   00093B  23                 	db	35
   137                           
   138                           ;initializer for _LedYellow
   139   00093C  13                 	db	19
   140                           
   141                           ;initializer for _LedGreen
   142   00093D  03                 	db	3
   143   000000                     _TMR1L	set	4046
   144   000000                     _TMR1H	set	4047
   145   000000                     _TMR0L	set	4054
   146   000000                     _TMR0H	set	4055
   147   000000                     _PORTE	set	3972
   148   000000                     _PORTD	set	3971
   149   000000                     _PORTC	set	3970
   150   000000                     _PORTB	set	3969
   151   000000                     _PORTA	set	3968
   152   000000                     _LATA	set	3977
   153   000000                     _TRISA	set	3986
   154   000000                     _PIE1bits	set	3997
   155   000000                     _INTCONbits	set	4082
   156   000000                     _TRISE	set	3990
   157   000000                     _TRISD	set	3989
   158   000000                     _TRISC	set	3988
   159   000000                     _TRISB	set	3987
   160   000000                     _LATE	set	3981
   161   000000                     _LATD	set	3980
   162   000000                     _LATC	set	3979
   163   000000                     _LATB	set	3978
   164   000000                     _ADCON1bits	set	4033
   165   000000                     _T1CONbits	set	4045
   166   000000                     _T0CONbits	set	4053
   167   000000                     _PIR1bits	set	3998
   168                           
   169                           ; #config settings
   170                           
   171                           	psect	cinit
   172   000862                     __pcinit:
   173                           	callstack 0
   174   000862                     start_initialization:
   175                           	callstack 0
   176   000862                     __initialization:
   177                           	callstack 0
   178                           
   179                           ; Initialize objects allocated to COMRAM (50 bytes)
   180                           ; load TBLPTR registers with __pidataCOMRAM
   181   000862  0E0C               	movlw	low __pidataCOMRAM
   182   000864  6EF6               	movwf	tblptrl,c
   183   000866  0E09               	movlw	high __pidataCOMRAM
   184   000868  6EF7               	movwf	tblptrh,c
   185   00086A  0E00               	movlw	low (__pidataCOMRAM shr (0+16))
   186   00086C  6EF8               	movwf	tblptru,c
   187   00086E  EE00  F001         	lfsr	0,__pdataCOMRAM
   188   000872  EE10 F032          	lfsr	1,50
   189   000876                     copy_data0:
   190   000876  0009               	tblrd		*+
   191   000878  CFF5 FFEE          	movff	tablat,postinc0
   192   00087C  50E5               	movf	postdec1,w,c
   193   00087E  50E1               	movf	fsr1l,w,c
   194   000880  E1FA               	bnz	copy_data0
   195                           
   196                           ; Clear objects allocated to COMRAM (17 bytes)
   197   000882  EE00  F047         	lfsr	0,__pbssCOMRAM
   198   000886  0E11               	movlw	17
   199   000888                     clear_0:
   200   000888  6AEE               	clrf	postinc0,c
   201   00088A  06E8               	decf	wreg,f,c
   202   00088C  E1FD               	bnz	clear_0
   203   00088E                     end_of_initialization:
   204                           	callstack 0
   205   00088E                     __end_of__initialization:
   206                           	callstack 0
   207   00088E  9058               	bcf	int$flags,0,c	;clear compiler interrupt flag (level 1)
   208   000890  9258               	bcf	int$flags,1,c	;clear compiler interrupt flag (level 2)
   209   000892  0E00               	movlw	low (__Lmediumconst shr (0+16))
   210   000894  6EF8               	movwf	tblptru,c
   211   000896  0100               	movlb	0
   212   000898  EFAB  F000         	goto	_main	;jump to C main() function
   213                           
   214                           	psect	bssCOMRAM
   215   000047                     __pbssCOMRAM:
   216                           	callstack 0
   217   000047                     _u16Counter:
   218                           	callstack 0
   219   000047                     	ds	2
   220   000049                     _preload_timer1:
   221                           	callstack 0
   222   000049                     	ds	2
   223   00004B                     _TIMER1_interruptHandler:
   224                           	callstack 0
   225   00004B                     	ds	2
   226   00004D                     _preload_timer:
   227                           	callstack 0
   228   00004D                     	ds	2
   229   00004F                     _TIMER0_interruptHandler:
   230                           	callstack 0
   231   00004F                     	ds	2
   232   000051                     _u16DelayCounter:
   233                           	callstack 0
   234   000051                     	ds	2
   235   000053                     _ValueOfSecond:
   236                           	callstack 0
   237   000053                     	ds	1
   238   000054                     led_turn_toggle@F3062:
   239                           	callstack 0
   240   000054                     	ds	1
   241   000055                     led_turn_off@F3057:
   242                           	callstack 0
   243   000055                     	ds	1
   244   000056                     led_turn_on@F3052:
   245                           	callstack 0
   246   000056                     	ds	1
   247   000057                     led_initialize@F3047:
   248                           	callstack 0
   249   000057                     	ds	1
   250                           
   251                           	psect	dataCOMRAM
   252   000001                     __pdataCOMRAM:
   253                           	callstack 0
   254   000001                     _port_registers:
   255                           	callstack 0
   256   000001                     	ds	10
   257   00000B                     _lat_registers:
   258                           	callstack 0
   259   00000B                     	ds	10
   260   000015                     _tris_registers:
   261                           	callstack 0
   262   000015                     	ds	10
   263   00001F                     _u8ValueOfSeg:
   264                           	callstack 0
   265   00001F                     	ds	1
   266   000020                     _TimerDelay:
   267                           	callstack 0
   268   000020                     	ds	6
   269   000026                     _SegObj:
   270                           	callstack 0
   271   000026                     	ds	5
   272   00002B                     _Timer1Obj:
   273                           	callstack 0
   274   00002B                     	ds	5
   275   000030                     _LedRed:
   276                           	callstack 0
   277   000030                     	ds	1
   278   000031                     _LedYellow:
   279                           	callstack 0
   280   000031                     	ds	1
   281   000032                     _LedGreen:
   282                           	callstack 0
   283   000032                     	ds	1
   284                           
   285                           	psect	cstackCOMRAM
   286   000033                     __pcstackCOMRAM:
   287                           	callstack 0
   288   000033                     ??_interruptManager:
   289   000033                     
   290                           ; 2 bytes @ 0x0
   291   000033                     	ds	2
   292   000035                     gpio_Pin_Derction_Intialize@pin_config:
   293                           	callstack 0
   294   000035                     gpio_Pin_Write_Logic@pin_config:
   295                           	callstack 0
   296   000035                     timer1_select_mode_timer_or_counter@_timer:
   297                           	callstack 0
   298   000035                     timer1_oscillator_enable@_timer:
   299                           	callstack 0
   300   000035                     timer1_select_reg_mode@_timer:
   301                           	callstack 0
   302                           
   303                           ; 2 bytes @ 0x2
   304   000035                     	ds	2
   305   000037                     ??_gpio_Pin_Derction_Intialize:
   306   000037                     gpio_Pin_Write_Logic@logic:
   307                           	callstack 0
   308   000037                     Timer1_Init@_timer:
   309                           	callstack 0
   310                           
   311                           ; 2 bytes @ 0x4
   312   000037                     	ds	1
   313   000038                     ??_gpio_Pin_Write_Logic:
   314                           
   315                           ; 1 bytes @ 0x5
   316   000038                     	ds	1
   317   000039                     ??_Timer1_Init:
   318                           
   319                           ; 1 bytes @ 0x6
   320   000039                     	ds	4
   321   00003D                     gpio_Pin_Derction_Intialize@ret:
   322                           	callstack 0
   323                           
   324                           ; 1 bytes @ 0xA
   325   00003D                     	ds	1
   326   00003E                     gpio_Pin_Write_Logic@ret:
   327                           	callstack 0
   328                           
   329                           ; 1 bytes @ 0xB
   330   00003E                     	ds	1
   331   00003F                     seven_segment_write_number@seg:
   332                           	callstack 0
   333   00003F                     led_turn_on@led:
   334                           	callstack 0
   335   00003F                     led_turn_off@led:
   336                           	callstack 0
   337   00003F                     gpio_Pin_Intialize@pin_config:
   338                           	callstack 0
   339                           
   340                           ; 2 bytes @ 0xC
   341   00003F                     	ds	2
   342   000041                     ??_gpio_Pin_Intialize:
   343   000041                     ??_led_turn_on:
   344   000041                     ??_led_turn_off:
   345   000041                     seven_segment_write_number@number:
   346                           	callstack 0
   347                           
   348                           ; 1 bytes @ 0xE
   349   000041                     	ds	1
   350   000042                     seven_segment_write_number@ret:
   351                           	callstack 0
   352   000042                     led_turn_on@pin_config:
   353                           	callstack 0
   354   000042                     led_turn_off@pin_config:
   355                           	callstack 0
   356   000042                     gpio_Pin_Intialize@ret:
   357                           	callstack 0
   358                           
   359                           ; 1 bytes @ 0xF
   360   000042                     	ds	1
   361   000043                     seven_segment_initialize@seg:
   362                           	callstack 0
   363   000043                     led_initialize@led:
   364                           	callstack 0
   365                           
   366                           ; 2 bytes @ 0x10
   367   000043                     	ds	2
   368   000045                     ??_led_initialize:
   369   000045                     seven_segment_initialize@ret:
   370                           	callstack 0
   371                           
   372                           ; 1 bytes @ 0x12
   373   000045                     	ds	1
   374   000046                     led_initialize@pin_config:
   375                           	callstack 0
   376                           
   377                           ; 1 bytes @ 0x13
   378   000046                     	ds	1
   379   000047                     
   380                           ; 1 bytes @ 0x14
   381 ;;
   382 ;;Main: autosize = 0, tempsize = 0, incstack = 0, save=0
   383 ;;
   384 ;; *************** function _main *****************
   385 ;; Defined at:
   386 ;;		line 20 in file "application.c"
   387 ;; Parameters:    Size  Location     Type
   388 ;;		None
   389 ;; Auto vars:     Size  Location     Type
   390 ;;		None
   391 ;; Return value:  Size  Location     Type
   392 ;;                  2  384[None  ] int 
   393 ;; Registers used:
   394 ;;		wreg, fsr2l, fsr2h, status,2, status,0, prodl, prodh, cstack
   395 ;; Tracked objects:
   396 ;;		On entry : 0/0
   397 ;;		On exit  : 0/0
   398 ;;		Unchanged: 0/0
   399 ;; Data sizes:     COMRAM   BANK0   BANK1   BANK2   BANK3   BANK4   BANK5   BANK6   BANK7   BANK8   BANK9  BANK10  BANK1
      +1  BANK12  BANK13  BANK14  BANK15
   400 ;;      Params:         0       0       0       0       0       0       0       0       0       0       0       0       
      +0       0       0       0       0
   401 ;;      Locals:         0       0       0       0       0       0       0       0       0       0       0       0       
      +0       0       0       0       0
   402 ;;      Temps:          0       0       0       0       0       0       0       0       0       0       0       0       
      +0       0       0       0       0
   403 ;;      Totals:         0       0       0       0       0       0       0       0       0       0       0       0       
      +0       0       0       0       0
   404 ;;Total ram usage:        0 bytes
   405 ;; Hardware stack levels required when called: 6
   406 ;; This function calls:
   407 ;;		_Timer1_Init
   408 ;;		_led_initialize
   409 ;;		_led_turn_off
   410 ;;		_led_turn_on
   411 ;;		_seven_segment_initialize
   412 ;;		_seven_segment_write_number
   413 ;; This function is called by:
   414 ;;		Startup code after reset
   415 ;; This function uses a non-reentrant model
   416 ;;
   417                           
   418                           	psect	text0
   419   000156                     __ptext0:
   420                           	callstack 0
   421   000156                     _main:
   422                           	callstack 25
   423   000156                     
   424                           ;application.c: 22:     led_initialize(&LedGreen);
   425   000156  0E32               	movlw	low _LedGreen
   426   000158  6E43               	movwf	led_initialize@led^0,c
   427   00015A  0E00               	movlw	high _LedGreen
   428   00015C  6E44               	movwf	(led_initialize@led+1)^0,c
   429   00015E  EC30  F003         	call	_led_initialize	;wreg free
   430                           
   431                           ;application.c: 23:     led_initialize(&LedYellow);
   432   000162  0E31               	movlw	low _LedYellow
   433   000164  6E43               	movwf	led_initialize@led^0,c
   434   000166  0E00               	movlw	high _LedYellow
   435   000168  6E44               	movwf	(led_initialize@led+1)^0,c
   436   00016A  EC30  F003         	call	_led_initialize	;wreg free
   437                           
   438                           ;application.c: 24:     led_initialize(&LedRed);
   439   00016E  0E30               	movlw	low _LedRed
   440   000170  6E43               	movwf	led_initialize@led^0,c
   441   000172  0E00               	movlw	high _LedRed
   442   000174  6E44               	movwf	(led_initialize@led+1)^0,c
   443   000176  EC30  F003         	call	_led_initialize	;wreg free
   444   00017A                     
   445                           ;application.c: 25:     Timer1_Init(&Timer1Obj);
   446   00017A  0E2B               	movlw	low _Timer1Obj
   447   00017C  6E37               	movwf	Timer1_Init@_timer^0,c
   448   00017E  0E00               	movlw	high _Timer1Obj
   449   000180  6E38               	movwf	(Timer1_Init@_timer+1)^0,c
   450   000182  ECD8  F001         	call	_Timer1_Init	;wreg free
   451   000186                     
   452                           ;application.c: 26:     seven_segment_initialize(&SegObj);
   453   000186  0E26               	movlw	low _SegObj
   454   000188  6E43               	movwf	seven_segment_initialize@seg^0,c
   455   00018A  0E00               	movlw	high _SegObj
   456   00018C  6E44               	movwf	(seven_segment_initialize@seg+1)^0,c
   457   00018E  EC9A  F003         	call	_seven_segment_initialize	;wreg free
   458   000192                     
   459                           ;application.c: 27:     led_turn_on(&LedGreen);
   460   000192  0E32               	movlw	low _LedGreen
   461   000194  6E3F               	movwf	led_turn_on@led^0,c
   462   000196  0E00               	movlw	high _LedGreen
   463   000198  6E40               	movwf	(led_turn_on@led+1)^0,c
   464   00019A  ECBA  F002         	call	_led_turn_on	;wreg free
   465   00019E                     
   466                           ;application.c: 28:     led_turn_off(&LedYellow);
   467   00019E  0E31               	movlw	low _LedYellow
   468   0001A0  6E3F               	movwf	led_turn_off@led^0,c
   469   0001A2  0E00               	movlw	high _LedYellow
   470   0001A4  6E40               	movwf	(led_turn_off@led+1)^0,c
   471   0001A6  ECF5  F002         	call	_led_turn_off	;wreg free
   472   0001AA                     
   473                           ;application.c: 29:     led_turn_off(&LedRed);
   474   0001AA  0E30               	movlw	low _LedRed
   475   0001AC  6E3F               	movwf	led_turn_off@led^0,c
   476   0001AE  0E00               	movlw	high _LedRed
   477   0001B0  6E40               	movwf	(led_turn_off@led+1)^0,c
   478   0001B2  ECF5  F002         	call	_led_turn_off	;wreg free
   479   0001B6                     
   480                           ;application.c: 30:     ADCON1bits.PCFG=0x0F;
   481   0001B6  0E0F               	movlw	15
   482   0001B8  12C1               	iorwf	193,f,c	;volatile
   483   0001BA                     l1833:
   484                           
   485                           ;application.c: 33:         seven_segment_write_number(&SegObj,u8ValueOfSeg);
   486   0001BA  0E26               	movlw	low _SegObj
   487   0001BC  6E3F               	movwf	seven_segment_write_number@seg^0,c
   488   0001BE  0E00               	movlw	high _SegObj
   489   0001C0  6E40               	movwf	(seven_segment_write_number@seg+1)^0,c
   490   0001C2  C01F  F041         	movff	_u8ValueOfSeg,seven_segment_write_number@number	;volatile
   491   0001C6  EC34  F002         	call	_seven_segment_write_number	;wreg free
   492   0001CA                     
   493                           ;application.c: 34:       if(ValueOfSecond==9){
   494   0001CA  0E09               	movlw	9
   495   0001CC  1853               	xorwf	_ValueOfSecond^0,w,c	;volatile
   496   0001CE  A4D8               	btfss	status,2,c
   497   0001D0  EFEC  F000         	goto	u1141
   498   0001D4  EFEE  F000         	goto	u1140
   499   0001D8                     u1141:
   500   0001D8  EF02  F001         	goto	l1841
   501   0001DC                     u1140:
   502   0001DC                     
   503                           ;application.c: 35:         led_turn_off(&LedGreen);
   504   0001DC  0E32               	movlw	low _LedGreen
   505   0001DE  6E3F               	movwf	led_turn_off@led^0,c
   506   0001E0  0E00               	movlw	high _LedGreen
   507   0001E2  6E40               	movwf	(led_turn_off@led+1)^0,c
   508   0001E4  ECF5  F002         	call	_led_turn_off	;wreg free
   509                           
   510                           ;application.c: 36:         led_turn_off(&LedRed);
   511   0001E8  0E30               	movlw	low _LedRed
   512   0001EA  6E3F               	movwf	led_turn_off@led^0,c
   513   0001EC  0E00               	movlw	high _LedRed
   514   0001EE  6E40               	movwf	(led_turn_off@led+1)^0,c
   515   0001F0  ECF5  F002         	call	_led_turn_off	;wreg free
   516                           
   517                           ;application.c: 37:         led_turn_on(&LedYellow);
   518   0001F4  0E31               	movlw	low _LedYellow
   519   0001F6  6E3F               	movwf	led_turn_on@led^0,c
   520   0001F8  0E00               	movlw	high _LedYellow
   521   0001FA  6E40               	movwf	(led_turn_on@led+1)^0,c
   522   0001FC  ECBA  F002         	call	_led_turn_on	;wreg free
   523   000200                     
   524                           ;application.c: 38:         u8ValueOfSeg=14 -9;
   525   000200  0E05               	movlw	5
   526   000202  6E1F               	movwf	_u8ValueOfSeg^0,c	;volatile
   527   000204                     l1841:
   528                           
   529                           ;application.c: 40:     if(ValueOfSecond==14){
   530   000204  0E0E               	movlw	14
   531   000206  1853               	xorwf	_ValueOfSecond^0,w,c	;volatile
   532   000208  A4D8               	btfss	status,2,c
   533   00020A  EF09  F001         	goto	u1151
   534   00020E  EF0B  F001         	goto	u1150
   535   000212                     u1151:
   536   000212  EF1F  F001         	goto	l1847
   537   000216                     u1150:
   538   000216                     
   539                           ;application.c: 41:         led_turn_off(&LedGreen);
   540   000216  0E32               	movlw	low _LedGreen
   541   000218  6E3F               	movwf	led_turn_off@led^0,c
   542   00021A  0E00               	movlw	high _LedGreen
   543   00021C  6E40               	movwf	(led_turn_off@led+1)^0,c
   544   00021E  ECF5  F002         	call	_led_turn_off	;wreg free
   545                           
   546                           ;application.c: 42:         led_turn_on(&LedRed);
   547   000222  0E30               	movlw	low _LedRed
   548   000224  6E3F               	movwf	led_turn_on@led^0,c
   549   000226  0E00               	movlw	high _LedRed
   550   000228  6E40               	movwf	(led_turn_on@led+1)^0,c
   551   00022A  ECBA  F002         	call	_led_turn_on	;wreg free
   552                           
   553                           ;application.c: 43:         led_turn_off(&LedYellow);
   554   00022E  0E31               	movlw	low _LedYellow
   555   000230  6E3F               	movwf	led_turn_off@led^0,c
   556   000232  0E00               	movlw	high _LedYellow
   557   000234  6E40               	movwf	(led_turn_off@led+1)^0,c
   558   000236  ECF5  F002         	call	_led_turn_off	;wreg free
   559   00023A                     
   560                           ;application.c: 44:         u8ValueOfSeg=21 -14;
   561   00023A  0E07               	movlw	7
   562   00023C  6E1F               	movwf	_u8ValueOfSeg^0,c	;volatile
   563   00023E                     l1847:
   564                           
   565                           ;application.c: 46:     if(ValueOfSecond==21){
   566   00023E  0E15               	movlw	21
   567   000240  1853               	xorwf	_ValueOfSecond^0,w,c	;volatile
   568   000242  A4D8               	btfss	status,2,c
   569   000244  EF26  F001         	goto	u1161
   570   000248  EF28  F001         	goto	u1160
   571   00024C                     u1161:
   572   00024C  EFDD  F000         	goto	l1833
   573   000250                     u1160:
   574   000250                     
   575                           ;application.c: 47:         led_turn_on(&LedGreen);
   576   000250  0E32               	movlw	low _LedGreen
   577   000252  6E3F               	movwf	led_turn_on@led^0,c
   578   000254  0E00               	movlw	high _LedGreen
   579   000256  6E40               	movwf	(led_turn_on@led+1)^0,c
   580   000258  ECBA  F002         	call	_led_turn_on	;wreg free
   581                           
   582                           ;application.c: 48:         led_turn_off(&LedRed);
   583   00025C  0E30               	movlw	low _LedRed
   584   00025E  6E3F               	movwf	led_turn_off@led^0,c
   585   000260  0E00               	movlw	high _LedRed
   586   000262  6E40               	movwf	(led_turn_off@led+1)^0,c
   587   000264  ECF5  F002         	call	_led_turn_off	;wreg free
   588                           
   589                           ;application.c: 49:         led_turn_off(&LedYellow);
   590   000268  0E31               	movlw	low _LedYellow
   591   00026A  6E3F               	movwf	led_turn_off@led^0,c
   592   00026C  0E00               	movlw	high _LedYellow
   593   00026E  6E40               	movwf	(led_turn_off@led+1)^0,c
   594   000270  ECF5  F002         	call	_led_turn_off	;wreg free
   595   000274                     
   596                           ;application.c: 50:         u8ValueOfSeg=9;
   597   000274  0E09               	movlw	9
   598   000276  6E1F               	movwf	_u8ValueOfSeg^0,c	;volatile
   599   000278                     
   600                           ;application.c: 51:         ValueOfSecond=0;
   601   000278  0E00               	movlw	0
   602   00027A  6E53               	movwf	_ValueOfSecond^0,c	;volatile
   603   00027C  EFDD  F000         	goto	l1833
   604   000280  EF07  F000         	goto	start
   605   000284                     __end_of_main:
   606                           	callstack 0
   607                           
   608 ;; *************** function _seven_segment_write_number *****************
   609 ;; Defined at:
   610 ;;		line 40 in file "ECU_Layer/7_seg/ecu_segment.c"
   611 ;; Parameters:    Size  Location     Type
   612 ;;  seg             2   12[COMRAM] PTR const struct .
   613 ;;		 -> SegObj(5), 
   614 ;;  number          1   14[COMRAM] unsigned char 
   615 ;; Auto vars:     Size  Location     Type
   616 ;;  ret             1   15[COMRAM] unsigned char 
   617 ;; Return value:  Size  Location     Type
   618 ;;                  1    wreg      unsigned char 
   619 ;; Registers used:
   620 ;;		wreg, fsr2l, fsr2h, status,2, status,0, prodl, prodh, cstack
   621 ;; Tracked objects:
   622 ;;		On entry : 0/0
   623 ;;		On exit  : 0/0
   624 ;;		Unchanged: 0/0
   625 ;; Data sizes:     COMRAM   BANK0   BANK1   BANK2   BANK3   BANK4   BANK5   BANK6   BANK7   BANK8   BANK9  BANK10  BANK1
      +1  BANK12  BANK13  BANK14  BANK15
   626 ;;      Params:         3       0       0       0       0       0       0       0       0       0       0       0       
      +0       0       0       0       0
   627 ;;      Locals:         1       0       0       0       0       0       0       0       0       0       0       0       
      +0       0       0       0       0
   628 ;;      Temps:          0       0       0       0       0       0       0       0       0       0       0       0       
      +0       0       0       0       0
   629 ;;      Totals:         4       0       0       0       0       0       0       0       0       0       0       0       
      +0       0       0       0       0
   630 ;;Total ram usage:        4 bytes
   631 ;; Hardware stack levels used: 1
   632 ;; Hardware stack levels required when called: 4
   633 ;; This function calls:
   634 ;;		_gpio_Pin_Write_Logic
   635 ;; This function is called by:
   636 ;;		_main
   637 ;; This function uses a non-reentrant model
   638 ;;
   639                           
   640                           	psect	text1
   641   000468                     __ptext1:
   642                           	callstack 0
   643   000468                     _seven_segment_write_number:
   644                           	callstack 26
   645   000468                     
   646                           ;ECU_Layer/7_seg/ecu_segment.c: 42:       if ((((void*)0)==seg) || (number > 9)){
   647   000468  503F               	movf	seven_segment_write_number@seg^0,w,c
   648   00046A  1040               	iorwf	(seven_segment_write_number@seg+1)^0,w,c
   649   00046C  B4D8               	btfsc	status,2,c
   650   00046E  EF3B  F002         	goto	u1051
   651   000472  EF3D  F002         	goto	u1050
   652   000476                     u1051:
   653   000476  EF45  F002         	goto	l1729
   654   00047A                     u1050:
   655   00047A  0E09               	movlw	9
   656   00047C  6441               	cpfsgt	seven_segment_write_number@number^0,c
   657   00047E  EF43  F002         	goto	u1061
   658   000482  EF45  F002         	goto	u1060
   659   000486                     u1061:
   660   000486  EF47  F002         	goto	l1731
   661   00048A                     u1060:
   662   00048A                     l1729:
   663                           
   664                           ;ECU_Layer/7_seg/ecu_segment.c: 44:       }
   665   00048A  EF7A  F002         	goto	l16
   666   00048E                     l1731:
   667                           
   668                           ;ECU_Layer/7_seg/ecu_segment.c: 46:           ret=gpio_Pin_Write_Logic(&(seg->segment_pi
      +                          n[0]), (number)& 0x01);
   669   00048E  C03F  F035         	movff	seven_segment_write_number@seg,gpio_Pin_Write_Logic@pin_config
   670   000492  C040  F036         	movff	seven_segment_write_number@seg+1,gpio_Pin_Write_Logic@pin_config+1
   671   000496  5041               	movf	seven_segment_write_number@number^0,w,c
   672   000498  0B01               	andlw	1
   673   00049A  6E37               	movwf	gpio_Pin_Write_Logic@logic^0,c
   674   00049C  EC42  F001         	call	_gpio_Pin_Write_Logic	;wreg free
   675   0004A0  6E42               	movwf	seven_segment_write_number@ret^0,c
   676                           
   677                           ;ECU_Layer/7_seg/ecu_segment.c: 47:           ret=gpio_Pin_Write_Logic(&(seg->segment_pi
      +                          n[1]), (number>>1)& 0x01);
   678   0004A2  0E01               	movlw	1
   679   0004A4  243F               	addwf	seven_segment_write_number@seg^0,w,c
   680   0004A6  6E35               	movwf	gpio_Pin_Write_Logic@pin_config^0,c
   681   0004A8  0E00               	movlw	0
   682   0004AA  2040               	addwfc	(seven_segment_write_number@seg+1)^0,w,c
   683   0004AC  6E36               	movwf	(gpio_Pin_Write_Logic@pin_config+1)^0,c
   684   0004AE  90D8               	bcf	status,0,c
   685   0004B0  3041               	rrcf	seven_segment_write_number@number^0,w,c
   686   0004B2  0B01               	andlw	1
   687   0004B4  6E37               	movwf	gpio_Pin_Write_Logic@logic^0,c
   688   0004B6  EC42  F001         	call	_gpio_Pin_Write_Logic	;wreg free
   689   0004BA  6E42               	movwf	seven_segment_write_number@ret^0,c
   690                           
   691                           ;ECU_Layer/7_seg/ecu_segment.c: 48:           ret=gpio_Pin_Write_Logic(&(seg->segment_pi
      +                          n[2]), (number>>2)& 0x01);
   692   0004BC  0E02               	movlw	2
   693   0004BE  243F               	addwf	seven_segment_write_number@seg^0,w,c
   694   0004C0  6E35               	movwf	gpio_Pin_Write_Logic@pin_config^0,c
   695   0004C2  0E00               	movlw	0
   696   0004C4  2040               	addwfc	(seven_segment_write_number@seg+1)^0,w,c
   697   0004C6  6E36               	movwf	(gpio_Pin_Write_Logic@pin_config+1)^0,c
   698   0004C8  4041               	rrncf	seven_segment_write_number@number^0,w,c
   699   0004CA  42E8               	rrncf	wreg,f,c
   700   0004CC  0B3F               	andlw	63
   701   0004CE  0B01               	andlw	1
   702   0004D0  6E37               	movwf	gpio_Pin_Write_Logic@logic^0,c
   703   0004D2  EC42  F001         	call	_gpio_Pin_Write_Logic	;wreg free
   704   0004D6  6E42               	movwf	seven_segment_write_number@ret^0,c
   705                           
   706                           ;ECU_Layer/7_seg/ecu_segment.c: 49:           ret=gpio_Pin_Write_Logic(&(seg->segment_pi
      +                          n[3]), (number>>3)& 0x01);
   707   0004D8  0E03               	movlw	3
   708   0004DA  243F               	addwf	seven_segment_write_number@seg^0,w,c
   709   0004DC  6E35               	movwf	gpio_Pin_Write_Logic@pin_config^0,c
   710   0004DE  0E00               	movlw	0
   711   0004E0  2040               	addwfc	(seven_segment_write_number@seg+1)^0,w,c
   712   0004E2  6E36               	movwf	(gpio_Pin_Write_Logic@pin_config+1)^0,c
   713   0004E4  3841               	swapf	seven_segment_write_number@number^0,w,c
   714   0004E6  46E8               	rlncf	wreg,f,c
   715   0004E8  0B1F               	andlw	31
   716   0004EA  0B01               	andlw	1
   717   0004EC  6E37               	movwf	gpio_Pin_Write_Logic@logic^0,c
   718   0004EE  EC42  F001         	call	_gpio_Pin_Write_Logic	;wreg free
   719   0004F2  6E42               	movwf	seven_segment_write_number@ret^0,c
   720   0004F4                     l16:
   721   0004F4  0012               	return		;funcret
   722   0004F6                     __end_of_seven_segment_write_number:
   723                           	callstack 0
   724                           
   725 ;; *************** function _seven_segment_initialize *****************
   726 ;; Defined at:
   727 ;;		line 18 in file "ECU_Layer/7_seg/ecu_segment.c"
   728 ;; Parameters:    Size  Location     Type
   729 ;;  seg             2   16[COMRAM] PTR const struct .
   730 ;;		 -> SegObj(5), 
   731 ;; Auto vars:     Size  Location     Type
   732 ;;  ret             1   18[COMRAM] unsigned char 
   733 ;; Return value:  Size  Location     Type
   734 ;;                  1    wreg      unsigned char 
   735 ;; Registers used:
   736 ;;		wreg, fsr2l, fsr2h, status,2, status,0, prodl, prodh, cstack
   737 ;; Tracked objects:
   738 ;;		On entry : 0/0
   739 ;;		On exit  : 0/0
   740 ;;		Unchanged: 0/0
   741 ;; Data sizes:     COMRAM   BANK0   BANK1   BANK2   BANK3   BANK4   BANK5   BANK6   BANK7   BANK8   BANK9  BANK10  BANK1
      +1  BANK12  BANK13  BANK14  BANK15
   742 ;;      Params:         2       0       0       0       0       0       0       0       0       0       0       0       
      +0       0       0       0       0
   743 ;;      Locals:         1       0       0       0       0       0       0       0       0       0       0       0       
      +0       0       0       0       0
   744 ;;      Temps:          0       0       0       0       0       0       0       0       0       0       0       0       
      +0       0       0       0       0
   745 ;;      Totals:         3       0       0       0       0       0       0       0       0       0       0       0       
      +0       0       0       0       0
   746 ;;Total ram usage:        3 bytes
   747 ;; Hardware stack levels used: 1
   748 ;; Hardware stack levels required when called: 5
   749 ;; This function calls:
   750 ;;		_gpio_Pin_Intialize
   751 ;; This function is called by:
   752 ;;		_main
   753 ;; This function uses a non-reentrant model
   754 ;;
   755                           
   756                           	psect	text2
   757   000734                     __ptext2:
   758                           	callstack 0
   759   000734                     _seven_segment_initialize:
   760                           	callstack 25
   761   000734                     
   762                           ;ECU_Layer/7_seg/ecu_segment.c: 20:       if (((void*)0)==seg){
   763   000734  5043               	movf	seven_segment_initialize@seg^0,w,c
   764   000736  1044               	iorwf	(seven_segment_initialize@seg+1)^0,w,c
   765   000738  A4D8               	btfss	status,2,c
   766   00073A  EFA1  F003         	goto	u1041
   767   00073E  EFA3  F003         	goto	u1040
   768   000742                     u1041:
   769   000742  EFA5  F003         	goto	l1719
   770   000746                     u1040:
   771   000746                     
   772                           ;ECU_Layer/7_seg/ecu_segment.c: 22:       }
   773   000746  EFC7  F003         	goto	l9
   774   00074A                     l1719:
   775                           
   776                           ;ECU_Layer/7_seg/ecu_segment.c: 24:           ret=gpio_Pin_Intialize(&(seg->segment_pin[
      +                          0]));
   777   00074A  C043  F03F         	movff	seven_segment_initialize@seg,gpio_Pin_Intialize@pin_config
   778   00074E  C044  F040         	movff	seven_segment_initialize@seg+1,gpio_Pin_Intialize@pin_config+1
   779   000752  EC69  F003         	call	_gpio_Pin_Intialize	;wreg free
   780   000756  6E45               	movwf	seven_segment_initialize@ret^0,c
   781                           
   782                           ;ECU_Layer/7_seg/ecu_segment.c: 25:           ret=gpio_Pin_Intialize(&(seg->segment_pin[
      +                          1]));
   783   000758  0E01               	movlw	1
   784   00075A  2443               	addwf	seven_segment_initialize@seg^0,w,c
   785   00075C  6E3F               	movwf	gpio_Pin_Intialize@pin_config^0,c
   786   00075E  0E00               	movlw	0
   787   000760  2044               	addwfc	(seven_segment_initialize@seg+1)^0,w,c
   788   000762  6E40               	movwf	(gpio_Pin_Intialize@pin_config+1)^0,c
   789   000764  EC69  F003         	call	_gpio_Pin_Intialize	;wreg free
   790   000768  6E45               	movwf	seven_segment_initialize@ret^0,c
   791                           
   792                           ;ECU_Layer/7_seg/ecu_segment.c: 26:           ret=gpio_Pin_Intialize(&(seg->segment_pin[
      +                          2]));
   793   00076A  0E02               	movlw	2
   794   00076C  2443               	addwf	seven_segment_initialize@seg^0,w,c
   795   00076E  6E3F               	movwf	gpio_Pin_Intialize@pin_config^0,c
   796   000770  0E00               	movlw	0
   797   000772  2044               	addwfc	(seven_segment_initialize@seg+1)^0,w,c
   798   000774  6E40               	movwf	(gpio_Pin_Intialize@pin_config+1)^0,c
   799   000776  EC69  F003         	call	_gpio_Pin_Intialize	;wreg free
   800   00077A  6E45               	movwf	seven_segment_initialize@ret^0,c
   801                           
   802                           ;ECU_Layer/7_seg/ecu_segment.c: 27:           ret=gpio_Pin_Intialize(&(seg->segment_pin[
      +                          3]));
   803   00077C  0E03               	movlw	3
   804   00077E  2443               	addwf	seven_segment_initialize@seg^0,w,c
   805   000780  6E3F               	movwf	gpio_Pin_Intialize@pin_config^0,c
   806   000782  0E00               	movlw	0
   807   000784  2044               	addwfc	(seven_segment_initialize@seg+1)^0,w,c
   808   000786  6E40               	movwf	(gpio_Pin_Intialize@pin_config+1)^0,c
   809   000788  EC69  F003         	call	_gpio_Pin_Intialize	;wreg free
   810   00078C  6E45               	movwf	seven_segment_initialize@ret^0,c
   811   00078E                     l9:
   812   00078E  0012               	return		;funcret
   813   000790                     __end_of_seven_segment_initialize:
   814                           	callstack 0
   815                           
   816 ;; *************** function _led_turn_on *****************
   817 ;; Defined at:
   818 ;;		line 38 in file "ECU_Layer/led/ecu_led.c"
   819 ;; Parameters:    Size  Location     Type
   820 ;;  led             2   12[COMRAM] PTR const struct .
   821 ;;		 -> LedRed(1), LedYellow(1), LedGreen(1), 
   822 ;; Auto vars:     Size  Location     Type
   823 ;;  pin_config      1   15[COMRAM] struct .
   824 ;;  ret             1    0        unsigned char 
   825 ;; Return value:  Size  Location     Type
   826 ;;                  1    wreg      unsigned char 
   827 ;; Registers used:
   828 ;;		wreg, fsr2l, fsr2h, status,2, status,0, prodl, prodh, cstack
   829 ;; Tracked objects:
   830 ;;		On entry : 0/0
   831 ;;		On exit  : 0/0
   832 ;;		Unchanged: 0/0
   833 ;; Data sizes:     COMRAM   BANK0   BANK1   BANK2   BANK3   BANK4   BANK5   BANK6   BANK7   BANK8   BANK9  BANK10  BANK1
      +1  BANK12  BANK13  BANK14  BANK15
   834 ;;      Params:         2       0       0       0       0       0       0       0       0       0       0       0       
      +0       0       0       0       0
   835 ;;      Locals:         1       0       0       0       0       0       0       0       0       0       0       0       
      +0       0       0       0       0
   836 ;;      Temps:          1       0       0       0       0       0       0       0       0       0       0       0       
      +0       0       0       0       0
   837 ;;      Totals:         4       0       0       0       0       0       0       0       0       0       0       0       
      +0       0       0       0       0
   838 ;;Total ram usage:        4 bytes
   839 ;; Hardware stack levels used: 1
   840 ;; Hardware stack levels required when called: 4
   841 ;; This function calls:
   842 ;;		_gpio_Pin_Write_Logic
   843 ;; This function is called by:
   844 ;;		_main
   845 ;; This function uses a non-reentrant model
   846 ;;
   847                           
   848                           	psect	text3
   849   000574                     __ptext3:
   850                           	callstack 0
   851   000574                     _led_turn_on:
   852                           	callstack 26
   853   000574                     
   854                           ;ECU_Layer/led/ecu_led.c: 40:     if (((void*)0)==led){
   855   000574  503F               	movf	led_turn_on@led^0,w,c
   856   000576  1040               	iorwf	(led_turn_on@led+1)^0,w,c
   857   000578  A4D8               	btfss	status,2,c
   858   00057A  EFC1  F002         	goto	u1091
   859   00057E  EFC3  F002         	goto	u1090
   860   000582                     u1091:
   861   000582  EFC5  F002         	goto	l32
   862   000586                     u1090:
   863   000586                     
   864                           ;ECU_Layer/led/ecu_led.c: 42:     }
   865   000586  EFF4  F002         	goto	l36
   866   00058A                     l32:
   867                           
   868                           ;ECU_Layer/led/ecu_led.c: 44:     pin_config_t pin_config={.direction=GPIO_DIRECTION_OUT
      +                          PUT,
   869   00058A  C056  F042         	movff	led_turn_on@F3052,led_turn_on@pin_config
   870   00058E  C03F  FFD9         	movff	led_turn_on@led,fsr2l
   871   000592  C040  FFDA         	movff	led_turn_on@led+1,fsr2h
   872   000596  50DF               	movf	223,w,c
   873   000598  0B0F               	andlw	15
   874   00059A  6E41               	movwf	??_led_turn_on^0,c
   875   00059C  5042               	movf	led_turn_on@pin_config^0,w,c
   876   00059E  1841               	xorwf	??_led_turn_on^0,w,c
   877   0005A0  0BF8               	andlw	-8
   878   0005A2  1841               	xorwf	??_led_turn_on^0,w,c
   879   0005A4  6E42               	movwf	led_turn_on@pin_config^0,c
   880   0005A6  C03F  FFD9         	movff	led_turn_on@led,fsr2l
   881   0005AA  C040  FFDA         	movff	led_turn_on@led+1,fsr2h
   882   0005AE  38DF               	swapf	223,w,c
   883   0005B0  0B07               	andlw	7
   884   0005B2  6E41               	movwf	??_led_turn_on^0,c
   885   0005B4  4641               	rlncf	??_led_turn_on^0,f,c
   886   0005B6  4641               	rlncf	??_led_turn_on^0,f,c
   887   0005B8  4641               	rlncf	??_led_turn_on^0,f,c
   888   0005BA  5042               	movf	led_turn_on@pin_config^0,w,c
   889   0005BC  1841               	xorwf	??_led_turn_on^0,w,c
   890   0005BE  0BC7               	andlw	-57
   891   0005C0  1841               	xorwf	??_led_turn_on^0,w,c
   892   0005C2  6E42               	movwf	led_turn_on@pin_config^0,c
   893   0005C4  9C42               	bcf	led_turn_on@pin_config^0,6,c
   894   0005C6  C03F  FFD9         	movff	led_turn_on@led,fsr2l
   895   0005CA  C040  FFDA         	movff	led_turn_on@led+1,fsr2h
   896   0005CE  AEDF               	btfss	indf2,7,c
   897   0005D0  D002               	bra	u1105
   898   0005D2  8E42               	bsf	led_turn_on@pin_config^0,7,c
   899   0005D4  D001               	bra	u1107
   900   0005D6                     u1105:
   901   0005D6  9E42               	bcf	led_turn_on@pin_config^0,7,c
   902   0005D8                     u1107:
   903   0005D8                     
   904                           ;ECU_Layer/led/ecu_led.c: 47:     gpio_Pin_Write_Logic(&pin_config,GPIO_HIGH);
   905   0005D8  0E42               	movlw	low led_turn_on@pin_config
   906   0005DA  6E35               	movwf	gpio_Pin_Write_Logic@pin_config^0,c
   907   0005DC  0E00               	movlw	high led_turn_on@pin_config
   908   0005DE  6E36               	movwf	(gpio_Pin_Write_Logic@pin_config+1)^0,c
   909   0005E0  0E01               	movlw	1
   910   0005E2  6E37               	movwf	gpio_Pin_Write_Logic@logic^0,c
   911   0005E4  EC42  F001         	call	_gpio_Pin_Write_Logic	;wreg free
   912   0005E8                     l36:
   913   0005E8  0012               	return		;funcret
   914   0005EA                     __end_of_led_turn_on:
   915                           	callstack 0
   916                           
   917 ;; *************** function _led_turn_off *****************
   918 ;; Defined at:
   919 ;;		line 59 in file "ECU_Layer/led/ecu_led.c"
   920 ;; Parameters:    Size  Location     Type
   921 ;;  led             2   12[COMRAM] PTR const struct .
   922 ;;		 -> LedRed(1), LedYellow(1), LedGreen(1), 
   923 ;; Auto vars:     Size  Location     Type
   924 ;;  pin_config      1   15[COMRAM] struct .
   925 ;;  ret             1    0        unsigned char 
   926 ;; Return value:  Size  Location     Type
   927 ;;                  1    wreg      unsigned char 
   928 ;; Registers used:
   929 ;;		wreg, fsr2l, fsr2h, status,2, status,0, prodl, prodh, cstack
   930 ;; Tracked objects:
   931 ;;		On entry : 0/0
   932 ;;		On exit  : 0/0
   933 ;;		Unchanged: 0/0
   934 ;; Data sizes:     COMRAM   BANK0   BANK1   BANK2   BANK3   BANK4   BANK5   BANK6   BANK7   BANK8   BANK9  BANK10  BANK1
      +1  BANK12  BANK13  BANK14  BANK15
   935 ;;      Params:         2       0       0       0       0       0       0       0       0       0       0       0       
      +0       0       0       0       0
   936 ;;      Locals:         1       0       0       0       0       0       0       0       0       0       0       0       
      +0       0       0       0       0
   937 ;;      Temps:          1       0       0       0       0       0       0       0       0       0       0       0       
      +0       0       0       0       0
   938 ;;      Totals:         4       0       0       0       0       0       0       0       0       0       0       0       
      +0       0       0       0       0
   939 ;;Total ram usage:        4 bytes
   940 ;; Hardware stack levels used: 1
   941 ;; Hardware stack levels required when called: 4
   942 ;; This function calls:
   943 ;;		_gpio_Pin_Write_Logic
   944 ;; This function is called by:
   945 ;;		_main
   946 ;; This function uses a non-reentrant model
   947 ;;
   948                           
   949                           	psect	text4
   950   0005EA                     __ptext4:
   951                           	callstack 0
   952   0005EA                     _led_turn_off:
   953                           	callstack 26
   954   0005EA                     
   955                           ;ECU_Layer/led/ecu_led.c: 61:     if (((void*)0)==led){
   956   0005EA  503F               	movf	led_turn_off@led^0,w,c
   957   0005EC  1040               	iorwf	(led_turn_off@led+1)^0,w,c
   958   0005EE  A4D8               	btfss	status,2,c
   959   0005F0  EFFC  F002         	goto	u1111
   960   0005F4  EFFE  F002         	goto	u1110
   961   0005F8                     u1111:
   962   0005F8  EF00  F003         	goto	l39
   963   0005FC                     u1110:
   964   0005FC                     
   965                           ;ECU_Layer/led/ecu_led.c: 63:     }
   966   0005FC  EF2F  F003         	goto	l43
   967   000600                     l39:
   968                           
   969                           ;ECU_Layer/led/ecu_led.c: 65:     pin_config_t pin_config={.direction=GPIO_DIRECTION_OUT
      +                          PUT,
   970   000600  C055  F042         	movff	led_turn_off@F3057,led_turn_off@pin_config
   971   000604  C03F  FFD9         	movff	led_turn_off@led,fsr2l
   972   000608  C040  FFDA         	movff	led_turn_off@led+1,fsr2h
   973   00060C  50DF               	movf	223,w,c
   974   00060E  0B0F               	andlw	15
   975   000610  6E41               	movwf	??_led_turn_off^0,c
   976   000612  5042               	movf	led_turn_off@pin_config^0,w,c
   977   000614  1841               	xorwf	??_led_turn_off^0,w,c
   978   000616  0BF8               	andlw	-8
   979   000618  1841               	xorwf	??_led_turn_off^0,w,c
   980   00061A  6E42               	movwf	led_turn_off@pin_config^0,c
   981   00061C  C03F  FFD9         	movff	led_turn_off@led,fsr2l
   982   000620  C040  FFDA         	movff	led_turn_off@led+1,fsr2h
   983   000624  38DF               	swapf	223,w,c
   984   000626  0B07               	andlw	7
   985   000628  6E41               	movwf	??_led_turn_off^0,c
   986   00062A  4641               	rlncf	??_led_turn_off^0,f,c
   987   00062C  4641               	rlncf	??_led_turn_off^0,f,c
   988   00062E  4641               	rlncf	??_led_turn_off^0,f,c
   989   000630  5042               	movf	led_turn_off@pin_config^0,w,c
   990   000632  1841               	xorwf	??_led_turn_off^0,w,c
   991   000634  0BC7               	andlw	-57
   992   000636  1841               	xorwf	??_led_turn_off^0,w,c
   993   000638  6E42               	movwf	led_turn_off@pin_config^0,c
   994   00063A  9C42               	bcf	led_turn_off@pin_config^0,6,c
   995   00063C  C03F  FFD9         	movff	led_turn_off@led,fsr2l
   996   000640  C040  FFDA         	movff	led_turn_off@led+1,fsr2h
   997   000644  AEDF               	btfss	indf2,7,c
   998   000646  D002               	bra	u1125
   999   000648  8E42               	bsf	led_turn_off@pin_config^0,7,c
  1000   00064A  D001               	bra	u1127
  1001   00064C                     u1125:
  1002   00064C  9E42               	bcf	led_turn_off@pin_config^0,7,c
  1003   00064E                     u1127:
  1004   00064E                     
  1005                           ;ECU_Layer/led/ecu_led.c: 68:     gpio_Pin_Write_Logic(&pin_config,GPIO_LOW);
  1006   00064E  0E42               	movlw	low led_turn_off@pin_config
  1007   000650  6E35               	movwf	gpio_Pin_Write_Logic@pin_config^0,c
  1008   000652  0E00               	movlw	high led_turn_off@pin_config
  1009   000654  6E36               	movwf	(gpio_Pin_Write_Logic@pin_config+1)^0,c
  1010   000656  0E00               	movlw	0
  1011   000658  6E37               	movwf	gpio_Pin_Write_Logic@logic^0,c
  1012   00065A  EC42  F001         	call	_gpio_Pin_Write_Logic	;wreg free
  1013   00065E                     l43:
  1014   00065E  0012               	return		;funcret
  1015   000660                     __end_of_led_turn_off:
  1016                           	callstack 0
  1017                           
  1018 ;; *************** function _led_initialize *****************
  1019 ;; Defined at:
  1020 ;;		line 16 in file "ECU_Layer/led/ecu_led.c"
  1021 ;; Parameters:    Size  Location     Type
  1022 ;;  led             2   16[COMRAM] PTR const struct .
  1023 ;;		 -> LedRed(1), LedYellow(1), LedGreen(1), 
  1024 ;; Auto vars:     Size  Location     Type
  1025 ;;  pin_config      1   19[COMRAM] struct .
  1026 ;;  ret             1    0        unsigned char 
  1027 ;; Return value:  Size  Location     Type
  1028 ;;                  1    wreg      unsigned char 
  1029 ;; Registers used:
  1030 ;;		wreg, fsr2l, fsr2h, status,2, status,0, prodl, prodh, cstack
  1031 ;; Tracked objects:
  1032 ;;		On entry : 0/0
  1033 ;;		On exit  : 0/0
  1034 ;;		Unchanged: 0/0
  1035 ;; Data sizes:     COMRAM   BANK0   BANK1   BANK2   BANK3   BANK4   BANK5   BANK6   BANK7   BANK8   BANK9  BANK10  BANK1
      +1  BANK12  BANK13  BANK14  BANK15
  1036 ;;      Params:         2       0       0       0       0       0       0       0       0       0       0       0       
      +0       0       0       0       0
  1037 ;;      Locals:         1       0       0       0       0       0       0       0       0       0       0       0       
      +0       0       0       0       0
  1038 ;;      Temps:          1       0       0       0       0       0       0       0       0       0       0       0       
      +0       0       0       0       0
  1039 ;;      Totals:         4       0       0       0       0       0       0       0       0       0       0       0       
      +0       0       0       0       0
  1040 ;;Total ram usage:        4 bytes
  1041 ;; Hardware stack levels used: 1
  1042 ;; Hardware stack levels required when called: 5
  1043 ;; This function calls:
  1044 ;;		_gpio_Pin_Intialize
  1045 ;; This function is called by:
  1046 ;;		_main
  1047 ;; This function uses a non-reentrant model
  1048 ;;
  1049                           
  1050                           	psect	text5
  1051   000660                     __ptext5:
  1052                           	callstack 0
  1053   000660                     _led_initialize:
  1054                           	callstack 25
  1055   000660                     
  1056                           ;ECU_Layer/led/ecu_led.c: 18:     if (((void*)0)==led){
  1057   000660  5043               	movf	led_initialize@led^0,w,c
  1058   000662  1044               	iorwf	(led_initialize@led+1)^0,w,c
  1059   000664  A4D8               	btfss	status,2,c
  1060   000666  EF37  F003         	goto	u1071
  1061   00066A  EF39  F003         	goto	u1070
  1062   00066E                     u1071:
  1063   00066E  EF3B  F003         	goto	l25
  1064   000672                     u1070:
  1065   000672                     
  1066                           ;ECU_Layer/led/ecu_led.c: 20:     }
  1067   000672  EF68  F003         	goto	l29
  1068   000676                     l25:
  1069                           
  1070                           ;ECU_Layer/led/ecu_led.c: 22:     pin_config_t pin_config={.direction=GPIO_DIRECTION_OUT
      +                          PUT,
  1071   000676  C057  F046         	movff	led_initialize@F3047,led_initialize@pin_config
  1072   00067A  C043  FFD9         	movff	led_initialize@led,fsr2l
  1073   00067E  C044  FFDA         	movff	led_initialize@led+1,fsr2h
  1074   000682  50DF               	movf	223,w,c
  1075   000684  0B0F               	andlw	15
  1076   000686  6E45               	movwf	??_led_initialize^0,c
  1077   000688  5046               	movf	led_initialize@pin_config^0,w,c
  1078   00068A  1845               	xorwf	??_led_initialize^0,w,c
  1079   00068C  0BF8               	andlw	-8
  1080   00068E  1845               	xorwf	??_led_initialize^0,w,c
  1081   000690  6E46               	movwf	led_initialize@pin_config^0,c
  1082   000692  C043  FFD9         	movff	led_initialize@led,fsr2l
  1083   000696  C044  FFDA         	movff	led_initialize@led+1,fsr2h
  1084   00069A  38DF               	swapf	223,w,c
  1085   00069C  0B07               	andlw	7
  1086   00069E  6E45               	movwf	??_led_initialize^0,c
  1087   0006A0  4645               	rlncf	??_led_initialize^0,f,c
  1088   0006A2  4645               	rlncf	??_led_initialize^0,f,c
  1089   0006A4  4645               	rlncf	??_led_initialize^0,f,c
  1090   0006A6  5046               	movf	led_initialize@pin_config^0,w,c
  1091   0006A8  1845               	xorwf	??_led_initialize^0,w,c
  1092   0006AA  0BC7               	andlw	-57
  1093   0006AC  1845               	xorwf	??_led_initialize^0,w,c
  1094   0006AE  6E46               	movwf	led_initialize@pin_config^0,c
  1095   0006B0  9C46               	bcf	led_initialize@pin_config^0,6,c
  1096   0006B2  C043  FFD9         	movff	led_initialize@led,fsr2l
  1097   0006B6  C044  FFDA         	movff	led_initialize@led+1,fsr2h
  1098   0006BA  AEDF               	btfss	indf2,7,c
  1099   0006BC  D002               	bra	u1085
  1100   0006BE  8E46               	bsf	led_initialize@pin_config^0,7,c
  1101   0006C0  D001               	bra	u1087
  1102   0006C2                     u1085:
  1103   0006C2  9E46               	bcf	led_initialize@pin_config^0,7,c
  1104   0006C4                     u1087:
  1105   0006C4                     
  1106                           ;ECU_Layer/led/ecu_led.c: 25:     gpio_Pin_Intialize(&pin_config);
  1107   0006C4  0E46               	movlw	low led_initialize@pin_config
  1108   0006C6  6E3F               	movwf	gpio_Pin_Intialize@pin_config^0,c
  1109   0006C8  0E00               	movlw	high led_initialize@pin_config
  1110   0006CA  6E40               	movwf	(gpio_Pin_Intialize@pin_config+1)^0,c
  1111   0006CC  EC69  F003         	call	_gpio_Pin_Intialize	;wreg free
  1112   0006D0                     l29:
  1113   0006D0  0012               	return		;funcret
  1114   0006D2                     __end_of_led_initialize:
  1115                           	callstack 0
  1116                           
  1117 ;; *************** function _gpio_Pin_Intialize *****************
  1118 ;; Defined at:
  1119 ;;		line 141 in file "MCAL_Layer/GPIO/hal_gpio.c"
  1120 ;; Parameters:    Size  Location     Type
  1121 ;;  pin_config      2   12[COMRAM] PTR const struct .
  1122 ;;		 -> SegObj.segment_pin(4), SegObj(5), led_initialize@pin_config(1), 
  1123 ;; Auto vars:     Size  Location     Type
  1124 ;;  ret             1   15[COMRAM] unsigned char 
  1125 ;; Return value:  Size  Location     Type
  1126 ;;                  1    wreg      unsigned char 
  1127 ;; Registers used:
  1128 ;;		wreg, fsr2l, fsr2h, status,2, status,0, prodl, prodh, cstack
  1129 ;; Tracked objects:
  1130 ;;		On entry : 0/0
  1131 ;;		On exit  : 0/0
  1132 ;;		Unchanged: 0/0
  1133 ;; Data sizes:     COMRAM   BANK0   BANK1   BANK2   BANK3   BANK4   BANK5   BANK6   BANK7   BANK8   BANK9  BANK10  BANK1
      +1  BANK12  BANK13  BANK14  BANK15
  1134 ;;      Params:         2       0       0       0       0       0       0       0       0       0       0       0       
      +0       0       0       0       0
  1135 ;;      Locals:         1       0       0       0       0       0       0       0       0       0       0       0       
      +0       0       0       0       0
  1136 ;;      Temps:          1       0       0       0       0       0       0       0       0       0       0       0       
      +0       0       0       0       0
  1137 ;;      Totals:         4       0       0       0       0       0       0       0       0       0       0       0       
      +0       0       0       0       0
  1138 ;;Total ram usage:        4 bytes
  1139 ;; Hardware stack levels used: 1
  1140 ;; Hardware stack levels required when called: 4
  1141 ;; This function calls:
  1142 ;;		_gpio_Pin_Derction_Intialize
  1143 ;;		_gpio_Pin_Write_Logic
  1144 ;; This function is called by:
  1145 ;;		_seven_segment_initialize
  1146 ;;		_led_initialize
  1147 ;; This function uses a non-reentrant model
  1148 ;;
  1149                           
  1150                           	psect	text6
  1151   0006D2                     __ptext6:
  1152                           	callstack 0
  1153   0006D2                     _gpio_Pin_Intialize:
  1154                           	callstack 25
  1155   0006D2                     
  1156                           ;MCAL_Layer/GPIO/hal_gpio.c: 143:     if (((void*)0)==pin_config || pin_config->pin > 8 
      +                          -1){
  1157   0006D2  503F               	movf	gpio_Pin_Intialize@pin_config^0,w,c
  1158   0006D4  1040               	iorwf	(gpio_Pin_Intialize@pin_config+1)^0,w,c
  1159   0006D6  B4D8               	btfsc	status,2,c
  1160   0006D8  EF70  F003         	goto	u941
  1161   0006DC  EF72  F003         	goto	u940
  1162   0006E0                     u941:
  1163   0006E0  EF83  F003         	goto	l1673
  1164   0006E4                     u940:
  1165   0006E4  C03F  FFD9         	movff	gpio_Pin_Intialize@pin_config,fsr2l
  1166   0006E8  C040  FFDA         	movff	gpio_Pin_Intialize@pin_config+1,fsr2h
  1167   0006EC  30DF               	rrcf	223,w,c
  1168   0006EE  32E8               	rrcf	wreg,f,c
  1169   0006F0  32E8               	rrcf	wreg,f,c
  1170   0006F2  0B07               	andlw	7
  1171   0006F4  6E41               	movwf	??_gpio_Pin_Intialize^0,c
  1172   0006F6  0E07               	movlw	7
  1173   0006F8  6441               	cpfsgt	??_gpio_Pin_Intialize^0,c
  1174   0006FA  EF81  F003         	goto	u951
  1175   0006FE  EF83  F003         	goto	u950
  1176   000702                     u951:
  1177   000702  EF83  F003         	goto	l1675
  1178   000706                     u950:
  1179   000706                     l1673:
  1180   000706                     l1675:
  1181   000706  C03F  F035         	movff	gpio_Pin_Intialize@pin_config,gpio_Pin_Derction_Intialize@pin_config
  1182   00070A  C040  F036         	movff	gpio_Pin_Intialize@pin_config+1,gpio_Pin_Derction_Intialize@pin_config+1
  1183   00070E  EC09  F000         	call	_gpio_Pin_Derction_Intialize	;wreg free
  1184   000712                     
  1185                           ;MCAL_Layer/GPIO/hal_gpio.c: 147:     ret=gpio_Pin_Write_Logic(pin_config,pin_config->lo
      +                          gic);
  1186   000712  C03F  F035         	movff	gpio_Pin_Intialize@pin_config,gpio_Pin_Write_Logic@pin_config
  1187   000716  C040  F036         	movff	gpio_Pin_Intialize@pin_config+1,gpio_Pin_Write_Logic@pin_config+1
  1188   00071A  C03F  FFD9         	movff	gpio_Pin_Intialize@pin_config,fsr2l
  1189   00071E  C040  FFDA         	movff	gpio_Pin_Intialize@pin_config+1,fsr2h
  1190   000722  0E00               	movlw	0
  1191   000724  BEDF               	btfsc	indf2,7,c
  1192   000726  0E01               	movlw	1
  1193   000728  6E37               	movwf	gpio_Pin_Write_Logic@logic^0,c
  1194   00072A  EC42  F001         	call	_gpio_Pin_Write_Logic	;wreg free
  1195   00072E  6E42               	movwf	gpio_Pin_Intialize@ret^0,c
  1196                           
  1197                           ;MCAL_Layer/GPIO/hal_gpio.c: 149:     return ret;
  1198   000730  5042               	movf	gpio_Pin_Intialize@ret^0,w,c
  1199   000732  0012               	return		;funcret
  1200   000734                     __end_of_gpio_Pin_Intialize:
  1201                           	callstack 0
  1202                           
  1203 ;; *************** function _gpio_Pin_Write_Logic *****************
  1204 ;; Defined at:
  1205 ;;		line 75 in file "MCAL_Layer/GPIO/hal_gpio.c"
  1206 ;; Parameters:    Size  Location     Type
  1207 ;;  pin_config      2    2[COMRAM] PTR const struct .
  1208 ;;		 -> SegObj.segment_pin(4), SegObj(5), led_turn_off@pin_config(1), led_turn_on@pin_config(1), 
  1209 ;;		 -> led_initialize@pin_config(1), 
  1210 ;;  logic           1    4[COMRAM] enum E2965
  1211 ;; Auto vars:     Size  Location     Type
  1212 ;;  ret             1   11[COMRAM] unsigned char 
  1213 ;; Return value:  Size  Location     Type
  1214 ;;                  1    wreg      unsigned char 
  1215 ;; Registers used:
  1216 ;;		wreg, fsr2l, fsr2h, status,2, status,0, prodl, prodh
  1217 ;; Tracked objects:
  1218 ;;		On entry : 0/0
  1219 ;;		On exit  : 0/0
  1220 ;;		Unchanged: 0/0
  1221 ;; Data sizes:     COMRAM   BANK0   BANK1   BANK2   BANK3   BANK4   BANK5   BANK6   BANK7   BANK8   BANK9  BANK10  BANK1
      +1  BANK12  BANK13  BANK14  BANK15
  1222 ;;      Params:         3       0       0       0       0       0       0       0       0       0       0       0       
      +0       0       0       0       0
  1223 ;;      Locals:         1       0       0       0       0       0       0       0       0       0       0       0       
      +0       0       0       0       0
  1224 ;;      Temps:          6       0       0       0       0       0       0       0       0       0       0       0       
      +0       0       0       0       0
  1225 ;;      Totals:        10       0       0       0       0       0       0       0       0       0       0       0       
      +0       0       0       0       0
  1226 ;;Total ram usage:       10 bytes
  1227 ;; Hardware stack levels used: 1
  1228 ;; Hardware stack levels required when called: 3
  1229 ;; This function calls:
  1230 ;;		Nothing
  1231 ;; This function is called by:
  1232 ;;		_seven_segment_write_number
  1233 ;;		_led_turn_on
  1234 ;;		_led_turn_off
  1235 ;;		_gpio_Pin_Intialize
  1236 ;; This function uses a non-reentrant model
  1237 ;;
  1238                           
  1239                           	psect	text7
  1240   000284                     __ptext7:
  1241                           	callstack 0
  1242   000284                     _gpio_Pin_Write_Logic:
  1243                           	callstack 26
  1244   000284                     
  1245                           ;MCAL_Layer/GPIO/hal_gpio.c: 76:     Std_ReturnType ret=(Std_ReturnType)0x01;
  1246   000284  0E01               	movlw	1
  1247   000286  6E3E               	movwf	gpio_Pin_Write_Logic@ret^0,c
  1248   000288                     
  1249                           ;MCAL_Layer/GPIO/hal_gpio.c: 77:     if (((void*)0)==pin_config || pin_config->pin > 8 -
      +                          1 ){
  1250   000288  5035               	movf	gpio_Pin_Write_Logic@pin_config^0,w,c
  1251   00028A  1036               	iorwf	(gpio_Pin_Write_Logic@pin_config+1)^0,w,c
  1252   00028C  B4D8               	btfsc	status,2,c
  1253   00028E  EF4B  F001         	goto	u841
  1254   000292  EF4D  F001         	goto	u840
  1255   000296                     u841:
  1256   000296  EF5E  F001         	goto	l1625
  1257   00029A                     u840:
  1258   00029A  C035  FFD9         	movff	gpio_Pin_Write_Logic@pin_config,fsr2l
  1259   00029E  C036  FFDA         	movff	gpio_Pin_Write_Logic@pin_config+1,fsr2h
  1260   0002A2  30DF               	rrcf	223,w,c
  1261   0002A4  32E8               	rrcf	wreg,f,c
  1262   0002A6  32E8               	rrcf	wreg,f,c
  1263   0002A8  0B07               	andlw	7
  1264   0002AA  6E38               	movwf	??_gpio_Pin_Write_Logic^0,c
  1265   0002AC  0E07               	movlw	7
  1266   0002AE  6438               	cpfsgt	??_gpio_Pin_Write_Logic^0,c
  1267   0002B0  EF5C  F001         	goto	u851
  1268   0002B4  EF5E  F001         	goto	u850
  1269   0002B8                     u851:
  1270   0002B8  EFC1  F001         	goto	l1633
  1271   0002BC                     u850:
  1272   0002BC                     l1625:
  1273                           
  1274                           ;MCAL_Layer/GPIO/hal_gpio.c: 78:         ret=(Std_ReturnType)0x00;
  1275   0002BC  0E00               	movlw	0
  1276   0002BE  6E3E               	movwf	gpio_Pin_Write_Logic@ret^0,c
  1277   0002C0  EFC1  F001         	goto	l1633
  1278   0002C4                     l1627:
  1279                           
  1280                           ;MCAL_Layer/GPIO/hal_gpio.c: 82:             (*lat_registers[pin_config->port] &=~((uint
      +                          8)1 << pin_config->pin));
  1281   0002C4  C035  FFD9         	movff	gpio_Pin_Write_Logic@pin_config,fsr2l
  1282   0002C8  C036  FFDA         	movff	gpio_Pin_Write_Logic@pin_config+1,fsr2h
  1283   0002CC  30DF               	rrcf	223,w,c
  1284   0002CE  32E8               	rrcf	wreg,f,c
  1285   0002D0  32E8               	rrcf	wreg,f,c
  1286   0002D2  0B07               	andlw	7
  1287   0002D4  6E38               	movwf	??_gpio_Pin_Write_Logic^0,c
  1288   0002D6  0E01               	movlw	1
  1289   0002D8  6E39               	movwf	(??_gpio_Pin_Write_Logic+1)^0,c
  1290   0002DA  2A38               	incf	??_gpio_Pin_Write_Logic^0,f,c
  1291   0002DC  EF72  F001         	goto	u864
  1292   0002E0                     u865:
  1293   0002E0  90D8               	bcf	status,0,c
  1294   0002E2  3639               	rlcf	(??_gpio_Pin_Write_Logic+1)^0,f,c
  1295   0002E4                     u864:
  1296   0002E4  2E38               	decfsz	??_gpio_Pin_Write_Logic^0,f,c
  1297   0002E6  EF70  F001         	goto	u865
  1298   0002EA  5039               	movf	(??_gpio_Pin_Write_Logic+1)^0,w,c
  1299   0002EC  0AFF               	xorlw	255
  1300   0002EE  6E3A               	movwf	(??_gpio_Pin_Write_Logic+2)^0,c
  1301   0002F0  C035  FFD9         	movff	gpio_Pin_Write_Logic@pin_config,fsr2l
  1302   0002F4  C036  FFDA         	movff	gpio_Pin_Write_Logic@pin_config+1,fsr2h
  1303   0002F8  50DF               	movf	223,w,c
  1304   0002FA  0B07               	andlw	7
  1305   0002FC  6E3B               	movwf	(??_gpio_Pin_Write_Logic+3)^0,c
  1306   0002FE  503B               	movf	(??_gpio_Pin_Write_Logic+3)^0,w,c
  1307   000300  0D02               	mullw	2
  1308   000302  0E0B               	movlw	low _lat_registers
  1309   000304  24F3               	addwf	243,w,c
  1310   000306  6ED9               	movwf	fsr2l,c
  1311   000308  0E00               	movlw	high _lat_registers
  1312   00030A  20F4               	addwfc	prodh,w,c
  1313   00030C  6EDA               	movwf	fsr2h,c
  1314   00030E  CFDE F03C          	movff	postinc2,??_gpio_Pin_Write_Logic+4
  1315   000312  CFDD F03D          	movff	postdec2,??_gpio_Pin_Write_Logic+5
  1316   000316  C03C  FFD9         	movff	??_gpio_Pin_Write_Logic+4,fsr2l
  1317   00031A  C03D  FFDA         	movff	??_gpio_Pin_Write_Logic+5,fsr2h
  1318   00031E  503A               	movf	(??_gpio_Pin_Write_Logic+2)^0,w,c
  1319   000320  16DF               	andwf	indf2,f,c
  1320                           
  1321                           ;MCAL_Layer/GPIO/hal_gpio.c: 83:             break;
  1322   000322  EFD6  F001         	goto	l1635
  1323   000326                     l1629:
  1324                           
  1325                           ;MCAL_Layer/GPIO/hal_gpio.c: 85:             (*lat_registers[pin_config->port] |=((uint8
      +                          )1 << pin_config->pin));
  1326   000326  C035  FFD9         	movff	gpio_Pin_Write_Logic@pin_config,fsr2l
  1327   00032A  C036  FFDA         	movff	gpio_Pin_Write_Logic@pin_config+1,fsr2h
  1328   00032E  30DF               	rrcf	223,w,c
  1329   000330  32E8               	rrcf	wreg,f,c
  1330   000332  32E8               	rrcf	wreg,f,c
  1331   000334  0B07               	andlw	7
  1332   000336  6E38               	movwf	??_gpio_Pin_Write_Logic^0,c
  1333   000338  0E01               	movlw	1
  1334   00033A  6E39               	movwf	(??_gpio_Pin_Write_Logic+1)^0,c
  1335   00033C  2A38               	incf	??_gpio_Pin_Write_Logic^0,f,c
  1336   00033E  EFA3  F001         	goto	u874
  1337   000342                     u875:
  1338   000342  90D8               	bcf	status,0,c
  1339   000344  3639               	rlcf	(??_gpio_Pin_Write_Logic+1)^0,f,c
  1340   000346                     u874:
  1341   000346  2E38               	decfsz	??_gpio_Pin_Write_Logic^0,f,c
  1342   000348  EFA1  F001         	goto	u875
  1343   00034C  C035  FFD9         	movff	gpio_Pin_Write_Logic@pin_config,fsr2l
  1344   000350  C036  FFDA         	movff	gpio_Pin_Write_Logic@pin_config+1,fsr2h
  1345   000354  50DF               	movf	223,w,c
  1346   000356  0B07               	andlw	7
  1347   000358  6E3A               	movwf	(??_gpio_Pin_Write_Logic+2)^0,c
  1348   00035A  503A               	movf	(??_gpio_Pin_Write_Logic+2)^0,w,c
  1349   00035C  0D02               	mullw	2
  1350   00035E  0E0B               	movlw	low _lat_registers
  1351   000360  24F3               	addwf	243,w,c
  1352   000362  6ED9               	movwf	fsr2l,c
  1353   000364  0E00               	movlw	high _lat_registers
  1354   000366  20F4               	addwfc	prodh,w,c
  1355   000368  6EDA               	movwf	fsr2h,c
  1356   00036A  CFDE F03B          	movff	postinc2,??_gpio_Pin_Write_Logic+3
  1357   00036E  CFDD F03C          	movff	postdec2,??_gpio_Pin_Write_Logic+4
  1358   000372  C03B  FFD9         	movff	??_gpio_Pin_Write_Logic+3,fsr2l
  1359   000376  C03C  FFDA         	movff	??_gpio_Pin_Write_Logic+4,fsr2h
  1360   00037A  5039               	movf	(??_gpio_Pin_Write_Logic+1)^0,w,c
  1361   00037C  12DF               	iorwf	indf2,f,c
  1362                           
  1363                           ;MCAL_Layer/GPIO/hal_gpio.c: 86:             break;
  1364   00037E  EFD6  F001         	goto	l1635
  1365   000382                     l1633:
  1366   000382  5037               	movf	gpio_Pin_Write_Logic@logic^0,w,c
  1367   000384  6E38               	movwf	??_gpio_Pin_Write_Logic^0,c
  1368   000386  6A39               	clrf	(??_gpio_Pin_Write_Logic+1)^0,c
  1369                           
  1370                           ; Switch on 2 bytes has been partitioned into a top level switch of size 1, and 1 sub-sw
      +                          itches
  1371                           ; Switch size 1, requested type "simple"
  1372                           ; Number of cases is 1, Range of values is 0 to 0
  1373                           ; switch strategies available:
  1374                           ; Name         Instructions Cycles
  1375                           ; simple_byte            4     3 (average)
  1376                           ;	Chosen strategy is simple_byte
  1377   000388  5039               	movf	(??_gpio_Pin_Write_Logic+1)^0,w,c
  1378   00038A  0A00               	xorlw	0	; case 0
  1379   00038C  B4D8               	btfsc	status,2,c
  1380   00038E  EFCB  F001         	goto	l1863
  1381   000392  EFD6  F001         	goto	l1635
  1382   000396                     l1863:
  1383                           
  1384                           ; Switch size 1, requested type "simple"
  1385                           ; Number of cases is 2, Range of values is 0 to 1
  1386                           ; switch strategies available:
  1387                           ; Name         Instructions Cycles
  1388                           ; simple_byte            7     4 (average)
  1389                           ;	Chosen strategy is simple_byte
  1390   000396  5038               	movf	??_gpio_Pin_Write_Logic^0,w,c
  1391   000398  0A00               	xorlw	0	; case 0
  1392   00039A  B4D8               	btfsc	status,2,c
  1393   00039C  EF62  F001         	goto	l1627
  1394   0003A0  0A01               	xorlw	1	; case 1
  1395   0003A2  B4D8               	btfsc	status,2,c
  1396   0003A4  EF93  F001         	goto	l1629
  1397   0003A8  EFD6  F001         	goto	l1635
  1398   0003AC                     l1635:
  1399                           
  1400                           ;MCAL_Layer/GPIO/hal_gpio.c: 88:     return ret;
  1401   0003AC  503E               	movf	gpio_Pin_Write_Logic@ret^0,w,c
  1402   0003AE  0012               	return		;funcret
  1403   0003B0                     __end_of_gpio_Pin_Write_Logic:
  1404                           	callstack 0
  1405                           
  1406 ;; *************** function _gpio_Pin_Derction_Intialize *****************
  1407 ;; Defined at:
  1408 ;;		line 24 in file "MCAL_Layer/GPIO/hal_gpio.c"
  1409 ;; Parameters:    Size  Location     Type
  1410 ;;  pin_config      2    2[COMRAM] PTR const struct .
  1411 ;;		 -> SegObj.segment_pin(4), SegObj(5), led_initialize@pin_config(1), 
  1412 ;; Auto vars:     Size  Location     Type
  1413 ;;  ret             1   10[COMRAM] unsigned char 
  1414 ;; Return value:  Size  Location     Type
  1415 ;;                  1    wreg      unsigned char 
  1416 ;; Registers used:
  1417 ;;		wreg, fsr2l, fsr2h, status,2, status,0, prodl, prodh
  1418 ;; Tracked objects:
  1419 ;;		On entry : 0/0
  1420 ;;		On exit  : 0/0
  1421 ;;		Unchanged: 0/0
  1422 ;; Data sizes:     COMRAM   BANK0   BANK1   BANK2   BANK3   BANK4   BANK5   BANK6   BANK7   BANK8   BANK9  BANK10  BANK1
      +1  BANK12  BANK13  BANK14  BANK15
  1423 ;;      Params:         2       0       0       0       0       0       0       0       0       0       0       0       
      +0       0       0       0       0
  1424 ;;      Locals:         1       0       0       0       0       0       0       0       0       0       0       0       
      +0       0       0       0       0
  1425 ;;      Temps:          6       0       0       0       0       0       0       0       0       0       0       0       
      +0       0       0       0       0
  1426 ;;      Totals:         9       0       0       0       0       0       0       0       0       0       0       0       
      +0       0       0       0       0
  1427 ;;Total ram usage:        9 bytes
  1428 ;; Hardware stack levels used: 1
  1429 ;; Hardware stack levels required when called: 3
  1430 ;; This function calls:
  1431 ;;		Nothing
  1432 ;; This function is called by:
  1433 ;;		_gpio_Pin_Intialize
  1434 ;; This function uses a non-reentrant model
  1435 ;;
  1436                           
  1437                           	psect	text8
  1438   000012                     __ptext8:
  1439                           	callstack 0
  1440   000012                     _gpio_Pin_Derction_Intialize:
  1441                           	callstack 25
  1442   000012                     
  1443                           ;MCAL_Layer/GPIO/hal_gpio.c: 25:     Std_ReturnType ret=(Std_ReturnType)0x01;
  1444   000012  0E01               	movlw	1
  1445   000014  6E3D               	movwf	gpio_Pin_Derction_Intialize@ret^0,c
  1446   000016                     
  1447                           ;MCAL_Layer/GPIO/hal_gpio.c: 26:     if ((((void*)0)==pin_config) || (pin_config->pin > 
      +                          8 -1)){
  1448   000016  5035               	movf	gpio_Pin_Derction_Intialize@pin_config^0,w,c
  1449   000018  1036               	iorwf	(gpio_Pin_Derction_Intialize@pin_config+1)^0,w,c
  1450   00001A  B4D8               	btfsc	status,2,c
  1451   00001C  EF12  F000         	goto	u881
  1452   000020  EF14  F000         	goto	u880
  1453   000024                     u881:
  1454   000024  EF25  F000         	goto	l1649
  1455   000028                     u880:
  1456   000028  C035  FFD9         	movff	gpio_Pin_Derction_Intialize@pin_config,fsr2l
  1457   00002C  C036  FFDA         	movff	gpio_Pin_Derction_Intialize@pin_config+1,fsr2h
  1458   000030  30DF               	rrcf	223,w,c
  1459   000032  32E8               	rrcf	wreg,f,c
  1460   000034  32E8               	rrcf	wreg,f,c
  1461   000036  0B07               	andlw	7
  1462   000038  6E37               	movwf	??_gpio_Pin_Derction_Intialize^0,c
  1463   00003A  0E07               	movlw	7
  1464   00003C  6437               	cpfsgt	??_gpio_Pin_Derction_Intialize^0,c
  1465   00003E  EF23  F000         	goto	u891
  1466   000042  EF25  F000         	goto	u890
  1467   000046                     u891:
  1468   000046  EF88  F000         	goto	l1657
  1469   00004A                     u890:
  1470   00004A                     l1649:
  1471                           
  1472                           ;MCAL_Layer/GPIO/hal_gpio.c: 27:         ret=(Std_ReturnType)0x00;
  1473   00004A  0E00               	movlw	0
  1474   00004C  6E3D               	movwf	gpio_Pin_Derction_Intialize@ret^0,c
  1475                           
  1476                           ;MCAL_Layer/GPIO/hal_gpio.c: 28:     }
  1477   00004E  EFA9  F000         	goto	l1659
  1478   000052                     l1651:
  1479                           
  1480                           ;MCAL_Layer/GPIO/hal_gpio.c: 32:                 (*tris_registers[pin_config->port] &=~(
      +                          (uint8)1 << pin_config->pin));
  1481   000052  C035  FFD9         	movff	gpio_Pin_Derction_Intialize@pin_config,fsr2l
  1482   000056  C036  FFDA         	movff	gpio_Pin_Derction_Intialize@pin_config+1,fsr2h
  1483   00005A  30DF               	rrcf	223,w,c
  1484   00005C  32E8               	rrcf	wreg,f,c
  1485   00005E  32E8               	rrcf	wreg,f,c
  1486   000060  0B07               	andlw	7
  1487   000062  6E37               	movwf	??_gpio_Pin_Derction_Intialize^0,c
  1488   000064  0E01               	movlw	1
  1489   000066  6E38               	movwf	(??_gpio_Pin_Derction_Intialize+1)^0,c
  1490   000068  2A37               	incf	??_gpio_Pin_Derction_Intialize^0,f,c
  1491   00006A  EF39  F000         	goto	u904
  1492   00006E                     u905:
  1493   00006E  90D8               	bcf	status,0,c
  1494   000070  3638               	rlcf	(??_gpio_Pin_Derction_Intialize+1)^0,f,c
  1495   000072                     u904:
  1496   000072  2E37               	decfsz	??_gpio_Pin_Derction_Intialize^0,f,c
  1497   000074  EF37  F000         	goto	u905
  1498   000078  5038               	movf	(??_gpio_Pin_Derction_Intialize+1)^0,w,c
  1499   00007A  0AFF               	xorlw	255
  1500   00007C  6E39               	movwf	(??_gpio_Pin_Derction_Intialize+2)^0,c
  1501   00007E  C035  FFD9         	movff	gpio_Pin_Derction_Intialize@pin_config,fsr2l
  1502   000082  C036  FFDA         	movff	gpio_Pin_Derction_Intialize@pin_config+1,fsr2h
  1503   000086  50DF               	movf	223,w,c
  1504   000088  0B07               	andlw	7
  1505   00008A  6E3A               	movwf	(??_gpio_Pin_Derction_Intialize+3)^0,c
  1506   00008C  503A               	movf	(??_gpio_Pin_Derction_Intialize+3)^0,w,c
  1507   00008E  0D02               	mullw	2
  1508   000090  0E15               	movlw	low _tris_registers
  1509   000092  24F3               	addwf	243,w,c
  1510   000094  6ED9               	movwf	fsr2l,c
  1511   000096  0E00               	movlw	high _tris_registers
  1512   000098  20F4               	addwfc	prodh,w,c
  1513   00009A  6EDA               	movwf	fsr2h,c
  1514   00009C  CFDE F03B          	movff	postinc2,??_gpio_Pin_Derction_Intialize+4
  1515   0000A0  CFDD F03C          	movff	postdec2,??_gpio_Pin_Derction_Intialize+5
  1516   0000A4  C03B  FFD9         	movff	??_gpio_Pin_Derction_Intialize+4,fsr2l
  1517   0000A8  C03C  FFDA         	movff	??_gpio_Pin_Derction_Intialize+5,fsr2h
  1518   0000AC  5039               	movf	(??_gpio_Pin_Derction_Intialize+2)^0,w,c
  1519   0000AE  16DF               	andwf	indf2,f,c
  1520                           
  1521                           ;MCAL_Layer/GPIO/hal_gpio.c: 33:              break;
  1522   0000B0  EFA9  F000         	goto	l1659
  1523   0000B4                     l1653:
  1524                           
  1525                           ;MCAL_Layer/GPIO/hal_gpio.c: 35:                 (*tris_registers[pin_config->port] |=((
      +                          uint8)1 << pin_config->pin));
  1526   0000B4  C035  FFD9         	movff	gpio_Pin_Derction_Intialize@pin_config,fsr2l
  1527   0000B8  C036  FFDA         	movff	gpio_Pin_Derction_Intialize@pin_config+1,fsr2h
  1528   0000BC  30DF               	rrcf	223,w,c
  1529   0000BE  32E8               	rrcf	wreg,f,c
  1530   0000C0  32E8               	rrcf	wreg,f,c
  1531   0000C2  0B07               	andlw	7
  1532   0000C4  6E37               	movwf	??_gpio_Pin_Derction_Intialize^0,c
  1533   0000C6  0E01               	movlw	1
  1534   0000C8  6E38               	movwf	(??_gpio_Pin_Derction_Intialize+1)^0,c
  1535   0000CA  2A37               	incf	??_gpio_Pin_Derction_Intialize^0,f,c
  1536   0000CC  EF6A  F000         	goto	u914
  1537   0000D0                     u915:
  1538   0000D0  90D8               	bcf	status,0,c
  1539   0000D2  3638               	rlcf	(??_gpio_Pin_Derction_Intialize+1)^0,f,c
  1540   0000D4                     u914:
  1541   0000D4  2E37               	decfsz	??_gpio_Pin_Derction_Intialize^0,f,c
  1542   0000D6  EF68  F000         	goto	u915
  1543   0000DA  C035  FFD9         	movff	gpio_Pin_Derction_Intialize@pin_config,fsr2l
  1544   0000DE  C036  FFDA         	movff	gpio_Pin_Derction_Intialize@pin_config+1,fsr2h
  1545   0000E2  50DF               	movf	223,w,c
  1546   0000E4  0B07               	andlw	7
  1547   0000E6  6E39               	movwf	(??_gpio_Pin_Derction_Intialize+2)^0,c
  1548   0000E8  5039               	movf	(??_gpio_Pin_Derction_Intialize+2)^0,w,c
  1549   0000EA  0D02               	mullw	2
  1550   0000EC  0E15               	movlw	low _tris_registers
  1551   0000EE  24F3               	addwf	243,w,c
  1552   0000F0  6ED9               	movwf	fsr2l,c
  1553   0000F2  0E00               	movlw	high _tris_registers
  1554   0000F4  20F4               	addwfc	prodh,w,c
  1555   0000F6  6EDA               	movwf	fsr2h,c
  1556   0000F8  CFDE F03A          	movff	postinc2,??_gpio_Pin_Derction_Intialize+3
  1557   0000FC  CFDD F03B          	movff	postdec2,??_gpio_Pin_Derction_Intialize+4
  1558   000100  C03A  FFD9         	movff	??_gpio_Pin_Derction_Intialize+3,fsr2l
  1559   000104  C03B  FFDA         	movff	??_gpio_Pin_Derction_Intialize+4,fsr2h
  1560   000108  5038               	movf	(??_gpio_Pin_Derction_Intialize+1)^0,w,c
  1561   00010A  12DF               	iorwf	indf2,f,c
  1562                           
  1563                           ;MCAL_Layer/GPIO/hal_gpio.c: 36:                 break;
  1564   00010C  EFA9  F000         	goto	l1659
  1565   000110                     l1657:
  1566   000110  C035  FFD9         	movff	gpio_Pin_Derction_Intialize@pin_config,fsr2l
  1567   000114  C036  FFDA         	movff	gpio_Pin_Derction_Intialize@pin_config+1,fsr2h
  1568   000118  BCDF               	btfsc	indf2,6,c
  1569   00011A  EF91  F000         	goto	u921
  1570   00011E  EF94  F000         	goto	u920
  1571   000122                     u921:
  1572   000122  0E01               	movlw	1
  1573   000124  EF95  F000         	goto	u930
  1574   000128                     u920:
  1575   000128  0E00               	movlw	0
  1576   00012A                     u930:
  1577   00012A  6E37               	movwf	??_gpio_Pin_Derction_Intialize^0,c
  1578   00012C  6A38               	clrf	(??_gpio_Pin_Derction_Intialize+1)^0,c
  1579                           
  1580                           ; Switch on 2 bytes has been partitioned into a top level switch of size 1, and 1 sub-sw
      +                          itches
  1581                           ; Switch size 1, requested type "simple"
  1582                           ; Number of cases is 1, Range of values is 0 to 0
  1583                           ; switch strategies available:
  1584                           ; Name         Instructions Cycles
  1585                           ; simple_byte            4     3 (average)
  1586                           ;	Chosen strategy is simple_byte
  1587   00012E  5038               	movf	(??_gpio_Pin_Derction_Intialize+1)^0,w,c
  1588   000130  0A00               	xorlw	0	; case 0
  1589   000132  B4D8               	btfsc	status,2,c
  1590   000134  EF9E  F000         	goto	l1865
  1591   000138  EF25  F000         	goto	l1649
  1592   00013C                     l1865:
  1593                           
  1594                           ; Switch size 1, requested type "simple"
  1595                           ; Number of cases is 2, Range of values is 0 to 1
  1596                           ; switch strategies available:
  1597                           ; Name         Instructions Cycles
  1598                           ; simple_byte            7     4 (average)
  1599                           ;	Chosen strategy is simple_byte
  1600   00013C  5037               	movf	??_gpio_Pin_Derction_Intialize^0,w,c
  1601   00013E  0A00               	xorlw	0	; case 0
  1602   000140  B4D8               	btfsc	status,2,c
  1603   000142  EF29  F000         	goto	l1651
  1604   000146  0A01               	xorlw	1	; case 1
  1605   000148  B4D8               	btfsc	status,2,c
  1606   00014A  EF5A  F000         	goto	l1653
  1607   00014E  EF25  F000         	goto	l1649
  1608   000152                     l1659:
  1609                           
  1610                           ;MCAL_Layer/GPIO/hal_gpio.c: 40:     return ret;
  1611   000152  503D               	movf	gpio_Pin_Derction_Intialize@ret^0,w,c
  1612   000154  0012               	return		;funcret
  1613   000156                     __end_of_gpio_Pin_Derction_Intialize:
  1614                           	callstack 0
  1615                           
  1616 ;; *************** function _Timer1_Init *****************
  1617 ;; Defined at:
  1618 ;;		line 22 in file "MCAL_Layer/TIMER1/hal_timer1.c"
  1619 ;; Parameters:    Size  Location     Type
  1620 ;;  _timer          2    4[COMRAM] PTR const struct .
  1621 ;;		 -> Timer1Obj(5), 
  1622 ;; Auto vars:     Size  Location     Type
  1623 ;;  ret             1    0        unsigned char 
  1624 ;; Return value:  Size  Location     Type
  1625 ;;                  1    wreg      unsigned char 
  1626 ;; Registers used:
  1627 ;;		wreg, fsr2l, fsr2h, status,2, status,0, cstack
  1628 ;; Tracked objects:
  1629 ;;		On entry : 0/0
  1630 ;;		On exit  : 0/0
  1631 ;;		Unchanged: 0/0
  1632 ;; Data sizes:     COMRAM   BANK0   BANK1   BANK2   BANK3   BANK4   BANK5   BANK6   BANK7   BANK8   BANK9  BANK10  BANK1
      +1  BANK12  BANK13  BANK14  BANK15
  1633 ;;      Params:         2       0       0       0       0       0       0       0       0       0       0       0       
      +0       0       0       0       0
  1634 ;;      Locals:         0       0       0       0       0       0       0       0       0       0       0       0       
      +0       0       0       0       0
  1635 ;;      Temps:          2       0       0       0       0       0       0       0       0       0       0       0       
      +0       0       0       0       0
  1636 ;;      Totals:         4       0       0       0       0       0       0       0       0       0       0       0       
      +0       0       0       0       0
  1637 ;;Total ram usage:        4 bytes
  1638 ;; Hardware stack levels used: 1
  1639 ;; Hardware stack levels required when called: 4
  1640 ;; This function calls:
  1641 ;;		_timer1_oscillator_enable
  1642 ;;		_timer1_select_mode_timer_or_counter
  1643 ;;		_timer1_select_reg_mode
  1644 ;; This function is called by:
  1645 ;;		_main
  1646 ;; This function uses a non-reentrant model
  1647 ;;
  1648                           
  1649                           	psect	text9
  1650   0003B0                     __ptext9:
  1651                           	callstack 0
  1652   0003B0                     _Timer1_Init:
  1653                           	callstack 26
  1654   0003B0                     
  1655                           ;MCAL_Layer/TIMER1/hal_timer1.c: 24:         if (((void*)0)==_timer){
  1656   0003B0  5037               	movf	Timer1_Init@_timer^0,w,c
  1657   0003B2  1038               	iorwf	(Timer1_Init@_timer+1)^0,w,c
  1658   0003B4  A4D8               	btfss	status,2,c
  1659   0003B6  EFDF  F001         	goto	u1131
  1660   0003BA  EFE1  F001         	goto	u1130
  1661   0003BE                     u1131:
  1662   0003BE  EFE3  F001         	goto	l300
  1663   0003C2                     u1130:
  1664   0003C2                     
  1665                           ;MCAL_Layer/TIMER1/hal_timer1.c: 26:         }
  1666   0003C2  EF33  F002         	goto	l302
  1667   0003C6                     l300:
  1668                           
  1669                           ;MCAL_Layer/TIMER1/hal_timer1.c: 29:             (T1CONbits.TMR1ON=0);
  1670   0003C6  90CD               	bcf	205,0,c	;volatile
  1671   0003C8                     
  1672                           ;MCAL_Layer/TIMER1/hal_timer1.c: 31:             (T1CONbits.T1CKPS=_timer->timer1_pre_sc
      +                          aler_val);
  1673   0003C8  EE20 F004          	lfsr	2,4
  1674   0003CC  5037               	movf	Timer1_Init@_timer^0,w,c
  1675   0003CE  26D9               	addwf	fsr2l,f,c
  1676   0003D0  5038               	movf	(Timer1_Init@_timer+1)^0,w,c
  1677   0003D2  22DA               	addwfc	fsr2h,f,c
  1678   0003D4  50DF               	movf	223,w,c
  1679   0003D6  0B03               	andlw	3
  1680   0003D8  6E39               	movwf	??_Timer1_Init^0,c
  1681   0003DA  3A39               	swapf	??_Timer1_Init^0,f,c
  1682   0003DC  50CD               	movf	205,w,c	;volatile
  1683   0003DE  1839               	xorwf	??_Timer1_Init^0,w,c
  1684   0003E0  0BCF               	andlw	-49
  1685   0003E2  1839               	xorwf	??_Timer1_Init^0,w,c
  1686   0003E4  6ECD               	movwf	205,c	;volatile
  1687   0003E6                     
  1688                           ;MCAL_Layer/TIMER1/hal_timer1.c: 34:             timer1_select_mode_timer_or_counter(_ti
      +                          mer);
  1689   0003E6  C037  F035         	movff	Timer1_Init@_timer,timer1_select_mode_timer_or_counter@_timer
  1690   0003EA  C038  F036         	movff	Timer1_Init@_timer+1,timer1_select_mode_timer_or_counter@_timer+1
  1691   0003EE  EC7B  F002         	call	_timer1_select_mode_timer_or_counter	;wreg free
  1692   0003F2                     
  1693                           ;MCAL_Layer/TIMER1/hal_timer1.c: 36:             timer1_oscillator_enable(_timer);
  1694   0003F2  C037  F035         	movff	Timer1_Init@_timer,timer1_oscillator_enable@_timer
  1695   0003F6  C038  F036         	movff	Timer1_Init@_timer+1,timer1_oscillator_enable@_timer+1
  1696   0003FA  EC12  F004         	call	_timer1_oscillator_enable	;wreg free
  1697   0003FE                     
  1698                           ;MCAL_Layer/TIMER1/hal_timer1.c: 38:             timer1_select_reg_mode(_timer);
  1699   0003FE  C037  F035         	movff	Timer1_Init@_timer,timer1_select_reg_mode@_timer
  1700   000402  C038  F036         	movff	Timer1_Init@_timer+1,timer1_select_reg_mode@_timer+1
  1701   000406  ECF3  F003         	call	_timer1_select_reg_mode	;wreg free
  1702   00040A                     
  1703                           ;MCAL_Layer/TIMER1/hal_timer1.c: 40:             TMR1H=(_timer->preloaded_value) >>8;
  1704   00040A  EE20 F002          	lfsr	2,2
  1705   00040E  5037               	movf	Timer1_Init@_timer^0,w,c
  1706   000410  26D9               	addwf	fsr2l,f,c
  1707   000412  5038               	movf	(Timer1_Init@_timer+1)^0,w,c
  1708   000414  22DA               	addwfc	fsr2h,f,c
  1709   000416  CFDE F039          	movff	postinc2,??_Timer1_Init
  1710   00041A  CFDD F03A          	movff	postdec2,??_Timer1_Init+1
  1711   00041E  C03A  F039         	movff	??_Timer1_Init+1,??_Timer1_Init
  1712   000422  6A3A               	clrf	(??_Timer1_Init+1)^0,c
  1713   000424  5039               	movf	??_Timer1_Init^0,w,c
  1714   000426  6ECF               	movwf	207,c	;volatile
  1715   000428                     
  1716                           ;MCAL_Layer/TIMER1/hal_timer1.c: 41:             TMR1L=(uint8)(_timer->preloaded_value);
  1717   000428  EE20 F002          	lfsr	2,2
  1718   00042C  5037               	movf	Timer1_Init@_timer^0,w,c
  1719   00042E  26D9               	addwf	fsr2l,f,c
  1720   000430  5038               	movf	(Timer1_Init@_timer+1)^0,w,c
  1721   000432  22DA               	addwfc	fsr2h,f,c
  1722   000434  50DF               	movf	indf2,w,c
  1723   000436  6ECE               	movwf	206,c	;volatile
  1724   000438                     
  1725                           ;MCAL_Layer/TIMER1/hal_timer1.c: 42:             preload_timer1=_timer->preloaded_value;
  1726   000438  EE20 F002          	lfsr	2,2
  1727   00043C  5037               	movf	Timer1_Init@_timer^0,w,c
  1728   00043E  26D9               	addwf	fsr2l,f,c
  1729   000440  5038               	movf	(Timer1_Init@_timer+1)^0,w,c
  1730   000442  22DA               	addwfc	fsr2h,f,c
  1731   000444  CFDE F049          	movff	postinc2,_preload_timer1
  1732   000448  CFDD F04A          	movff	postdec2,_preload_timer1+1
  1733   00044C                     
  1734                           ;MCAL_Layer/TIMER1/hal_timer1.c: 45:        (PIE1bits.TMR1IE=1);
  1735   00044C  809D               	bsf	157,0,c	;volatile
  1736   00044E                     
  1737                           ;MCAL_Layer/TIMER1/hal_timer1.c: 46:        (PIR1bits.TMR1IF=0);
  1738   00044E  909E               	bcf	158,0,c	;volatile
  1739   000450                     
  1740                           ;MCAL_Layer/TIMER1/hal_timer1.c: 59:             (INTCONbits.GIE=1);
  1741   000450  8EF2               	bsf	242,7,c	;volatile
  1742   000452                     
  1743                           ;MCAL_Layer/TIMER1/hal_timer1.c: 60:             (INTCONbits.PEIE=1);
  1744   000452  8CF2               	bsf	242,6,c	;volatile
  1745   000454                     
  1746                           ;MCAL_Layer/TIMER1/hal_timer1.c: 62:            TIMER1_interruptHandler =_timer->TIMER1_
      +                          HandlerInterrupt;
  1747   000454  C037  FFD9         	movff	Timer1_Init@_timer,fsr2l
  1748   000458  C038  FFDA         	movff	Timer1_Init@_timer+1,fsr2h
  1749   00045C  CFDE F04B          	movff	postinc2,_TIMER1_interruptHandler
  1750   000460  CFDD F04C          	movff	postdec2,_TIMER1_interruptHandler+1
  1751   000464                     
  1752                           ;MCAL_Layer/TIMER1/hal_timer1.c: 65:             (T1CONbits.TMR1ON=1);
  1753   000464  80CD               	bsf	205,0,c	;volatile
  1754   000466                     l302:
  1755   000466  0012               	return		;funcret
  1756   000468                     __end_of_Timer1_Init:
  1757                           	callstack 0
  1758                           
  1759 ;; *************** function _timer1_select_reg_mode *****************
  1760 ;; Defined at:
  1761 ;;		line 159 in file "MCAL_Layer/TIMER1/hal_timer1.c"
  1762 ;; Parameters:    Size  Location     Type
  1763 ;;  _timer          2    2[COMRAM] PTR const struct .
  1764 ;;		 -> Timer1Obj(5), 
  1765 ;; Auto vars:     Size  Location     Type
  1766 ;;		None
  1767 ;; Return value:  Size  Location     Type
  1768 ;;                  1    wreg      void 
  1769 ;; Registers used:
  1770 ;;		wreg, fsr2l, fsr2h, status,2, status,0
  1771 ;; Tracked objects:
  1772 ;;		On entry : 0/0
  1773 ;;		On exit  : 0/0
  1774 ;;		Unchanged: 0/0
  1775 ;; Data sizes:     COMRAM   BANK0   BANK1   BANK2   BANK3   BANK4   BANK5   BANK6   BANK7   BANK8   BANK9  BANK10  BANK1
      +1  BANK12  BANK13  BANK14  BANK15
  1776 ;;      Params:         2       0       0       0       0       0       0       0       0       0       0       0       
      +0       0       0       0       0
  1777 ;;      Locals:         0       0       0       0       0       0       0       0       0       0       0       0       
      +0       0       0       0       0
  1778 ;;      Temps:          0       0       0       0       0       0       0       0       0       0       0       0       
      +0       0       0       0       0
  1779 ;;      Totals:         2       0       0       0       0       0       0       0       0       0       0       0       
      +0       0       0       0       0
  1780 ;;Total ram usage:        2 bytes
  1781 ;; Hardware stack levels used: 1
  1782 ;; Hardware stack levels required when called: 3
  1783 ;; This function calls:
  1784 ;;		Nothing
  1785 ;; This function is called by:
  1786 ;;		_Timer1_Init
  1787 ;; This function uses a non-reentrant model
  1788 ;;
  1789                           
  1790                           	psect	text10
  1791   0007E6                     __ptext10:
  1792                           	callstack 0
  1793   0007E6                     _timer1_select_reg_mode:
  1794                           	callstack 26
  1795   0007E6                     
  1796                           ;MCAL_Layer/TIMER1/hal_timer1.c: 160:     if (0==_timer->timer1_mode_wr_reg){
  1797   0007E6  EE20 F004          	lfsr	2,4
  1798   0007EA  5035               	movf	timer1_select_reg_mode@_timer^0,w,c
  1799   0007EC  26D9               	addwf	fsr2l,f,c
  1800   0007EE  5036               	movf	(timer1_select_reg_mode@_timer+1)^0,w,c
  1801   0007F0  22DA               	addwfc	fsr2h,f,c
  1802   0007F2  BADF               	btfsc	indf2,5,c
  1803   0007F4  EFFE  F003         	goto	u1021
  1804   0007F8  EF00  F004         	goto	u1020
  1805   0007FC                     u1021:
  1806   0007FC  EF03  F004         	goto	l1709
  1807   000800                     u1020:
  1808   000800                     
  1809                           ;MCAL_Layer/TIMER1/hal_timer1.c: 161:         (T1CONbits.RD16=0);
  1810   000800  9ECD               	bcf	205,7,c	;volatile
  1811                           
  1812                           ;MCAL_Layer/TIMER1/hal_timer1.c: 162:     }
  1813   000802  EF11  F004         	goto	l344
  1814   000806                     l1709:
  1815   000806  EE20 F004          	lfsr	2,4
  1816   00080A  5035               	movf	timer1_select_reg_mode@_timer^0,w,c
  1817   00080C  26D9               	addwf	fsr2l,f,c
  1818   00080E  5036               	movf	(timer1_select_reg_mode@_timer+1)^0,w,c
  1819   000810  22DA               	addwfc	fsr2h,f,c
  1820   000812  AADF               	btfss	indf2,5,c
  1821   000814  EF0E  F004         	goto	u1031
  1822   000818  EF10  F004         	goto	u1030
  1823   00081C                     u1031:
  1824   00081C  EF11  F004         	goto	l344
  1825   000820                     u1030:
  1826   000820                     
  1827                           ;MCAL_Layer/TIMER1/hal_timer1.c: 164:         (T1CONbits.RD16=1);
  1828   000820  8ECD               	bsf	205,7,c	;volatile
  1829   000822                     l344:
  1830   000822  0012               	return		;funcret
  1831   000824                     __end_of_timer1_select_reg_mode:
  1832                           	callstack 0
  1833                           
  1834 ;; *************** function _timer1_select_mode_timer_or_counter *****************
  1835 ;; Defined at:
  1836 ;;		line 133 in file "MCAL_Layer/TIMER1/hal_timer1.c"
  1837 ;; Parameters:    Size  Location     Type
  1838 ;;  _timer          2    2[COMRAM] PTR const struct .
  1839 ;;		 -> Timer1Obj(5), 
  1840 ;; Auto vars:     Size  Location     Type
  1841 ;;		None
  1842 ;; Return value:  Size  Location     Type
  1843 ;;                  1    wreg      void 
  1844 ;; Registers used:
  1845 ;;		wreg, fsr2l, fsr2h, status,2, status,0
  1846 ;; Tracked objects:
  1847 ;;		On entry : 0/0
  1848 ;;		On exit  : 0/0
  1849 ;;		Unchanged: 0/0
  1850 ;; Data sizes:     COMRAM   BANK0   BANK1   BANK2   BANK3   BANK4   BANK5   BANK6   BANK7   BANK8   BANK9  BANK10  BANK1
      +1  BANK12  BANK13  BANK14  BANK15
  1851 ;;      Params:         2       0       0       0       0       0       0       0       0       0       0       0       
      +0       0       0       0       0
  1852 ;;      Locals:         0       0       0       0       0       0       0       0       0       0       0       0       
      +0       0       0       0       0
  1853 ;;      Temps:          0       0       0       0       0       0       0       0       0       0       0       0       
      +0       0       0       0       0
  1854 ;;      Totals:         2       0       0       0       0       0       0       0       0       0       0       0       
      +0       0       0       0       0
  1855 ;;Total ram usage:        2 bytes
  1856 ;; Hardware stack levels used: 1
  1857 ;; Hardware stack levels required when called: 3
  1858 ;; This function calls:
  1859 ;;		Nothing
  1860 ;; This function is called by:
  1861 ;;		_Timer1_Init
  1862 ;; This function uses a non-reentrant model
  1863 ;;
  1864                           
  1865                           	psect	text11
  1866   0004F6                     __ptext11:
  1867                           	callstack 0
  1868   0004F6                     _timer1_select_mode_timer_or_counter:
  1869                           	callstack 26
  1870   0004F6                     
  1871                           ;MCAL_Layer/TIMER1/hal_timer1.c: 134:     if (0==_timer->timer1_mode_timer_or_counter){
  1872   0004F6  EE20 F004          	lfsr	2,4
  1873   0004FA  5035               	movf	timer1_select_mode_timer_or_counter@_timer^0,w,c
  1874   0004FC  26D9               	addwf	fsr2l,f,c
  1875   0004FE  5036               	movf	(timer1_select_mode_timer_or_counter@_timer+1)^0,w,c
  1876   000500  22DA               	addwfc	fsr2h,f,c
  1877   000502  B4DF               	btfsc	indf2,2,c
  1878   000504  EF86  F002         	goto	u961
  1879   000508  EF88  F002         	goto	u960
  1880   00050C                     u961:
  1881   00050C  EF8B  F002         	goto	l1685
  1882   000510                     u960:
  1883   000510                     
  1884                           ;MCAL_Layer/TIMER1/hal_timer1.c: 135:         (T1CONbits.TMR1CS=0);
  1885   000510  92CD               	bcf	205,1,c	;volatile
  1886                           
  1887                           ;MCAL_Layer/TIMER1/hal_timer1.c: 136:     }
  1888   000512  EFB9  F002         	goto	l330
  1889   000516                     l1685:
  1890   000516  EE20 F004          	lfsr	2,4
  1891   00051A  5035               	movf	timer1_select_mode_timer_or_counter@_timer^0,w,c
  1892   00051C  26D9               	addwf	fsr2l,f,c
  1893   00051E  5036               	movf	(timer1_select_mode_timer_or_counter@_timer+1)^0,w,c
  1894   000520  22DA               	addwfc	fsr2h,f,c
  1895   000522  A4DF               	btfss	indf2,2,c
  1896   000524  EF96  F002         	goto	u971
  1897   000528  EF98  F002         	goto	u970
  1898   00052C                     u971:
  1899   00052C  EFB9  F002         	goto	l330
  1900   000530                     u970:
  1901   000530                     
  1902                           ;MCAL_Layer/TIMER1/hal_timer1.c: 138:         (T1CONbits.TMR1CS=1);
  1903   000530  82CD               	bsf	205,1,c	;volatile
  1904   000532                     
  1905                           ;MCAL_Layer/TIMER1/hal_timer1.c: 139:         if (0 ==_timer->timer1_counter_mode_sync){
  1906   000532  EE20 F004          	lfsr	2,4
  1907   000536  5035               	movf	timer1_select_mode_timer_or_counter@_timer^0,w,c
  1908   000538  26D9               	addwf	fsr2l,f,c
  1909   00053A  5036               	movf	(timer1_select_mode_timer_or_counter@_timer+1)^0,w,c
  1910   00053C  22DA               	addwfc	fsr2h,f,c
  1911   00053E  B6DF               	btfsc	indf2,3,c
  1912   000540  EFA4  F002         	goto	u981
  1913   000544  EFA6  F002         	goto	u980
  1914   000548                     u981:
  1915   000548  EFA9  F002         	goto	l1693
  1916   00054C                     u980:
  1917   00054C                     
  1918                           ;MCAL_Layer/TIMER1/hal_timer1.c: 140:             (T1CONbits.T1SYNC=0);
  1919   00054C  94CD               	bcf	205,2,c	;volatile
  1920                           
  1921                           ;MCAL_Layer/TIMER1/hal_timer1.c: 141:         }
  1922   00054E  EFB9  F002         	goto	l330
  1923   000552                     l1693:
  1924   000552  EE20 F004          	lfsr	2,4
  1925   000556  5035               	movf	timer1_select_mode_timer_or_counter@_timer^0,w,c
  1926   000558  26D9               	addwf	fsr2l,f,c
  1927   00055A  5036               	movf	(timer1_select_mode_timer_or_counter@_timer+1)^0,w,c
  1928   00055C  22DA               	addwfc	fsr2h,f,c
  1929   00055E  A6DF               	btfss	indf2,3,c
  1930   000560  EFB4  F002         	goto	u991
  1931   000564  EFB6  F002         	goto	u990
  1932   000568                     u991:
  1933   000568  EFB9  F002         	goto	l329
  1934   00056C                     u990:
  1935   00056C                     
  1936                           ;MCAL_Layer/TIMER1/hal_timer1.c: 143:             (T1CONbits.T1SYNC=1);
  1937   00056C  84CD               	bsf	205,2,c	;volatile
  1938                           
  1939                           ;MCAL_Layer/TIMER1/hal_timer1.c: 144:         }
  1940   00056E  EFB9  F002         	goto	l330
  1941   000572                     l329:
  1942   000572                     l330:
  1943   000572  0012               	return		;funcret
  1944   000574                     __end_of_timer1_select_mode_timer_or_counter:
  1945                           	callstack 0
  1946                           
  1947 ;; *************** function _timer1_oscillator_enable *****************
  1948 ;; Defined at:
  1949 ;;		line 149 in file "MCAL_Layer/TIMER1/hal_timer1.c"
  1950 ;; Parameters:    Size  Location     Type
  1951 ;;  _timer          2    2[COMRAM] PTR const struct .
  1952 ;;		 -> Timer1Obj(5), 
  1953 ;; Auto vars:     Size  Location     Type
  1954 ;;		None
  1955 ;; Return value:  Size  Location     Type
  1956 ;;                  1    wreg      void 
  1957 ;; Registers used:
  1958 ;;		wreg, fsr2l, fsr2h, status,2, status,0
  1959 ;; Tracked objects:
  1960 ;;		On entry : 0/0
  1961 ;;		On exit  : 0/0
  1962 ;;		Unchanged: 0/0
  1963 ;; Data sizes:     COMRAM   BANK0   BANK1   BANK2   BANK3   BANK4   BANK5   BANK6   BANK7   BANK8   BANK9  BANK10  BANK1
      +1  BANK12  BANK13  BANK14  BANK15
  1964 ;;      Params:         2       0       0       0       0       0       0       0       0       0       0       0       
      +0       0       0       0       0
  1965 ;;      Locals:         0       0       0       0       0       0       0       0       0       0       0       0       
      +0       0       0       0       0
  1966 ;;      Temps:          0       0       0       0       0       0       0       0       0       0       0       0       
      +0       0       0       0       0
  1967 ;;      Totals:         2       0       0       0       0       0       0       0       0       0       0       0       
      +0       0       0       0       0
  1968 ;;Total ram usage:        2 bytes
  1969 ;; Hardware stack levels used: 1
  1970 ;; Hardware stack levels required when called: 3
  1971 ;; This function calls:
  1972 ;;		Nothing
  1973 ;; This function is called by:
  1974 ;;		_Timer1_Init
  1975 ;; This function uses a non-reentrant model
  1976 ;;
  1977                           
  1978                           	psect	text12
  1979   000824                     __ptext12:
  1980                           	callstack 0
  1981   000824                     _timer1_oscillator_enable:
  1982                           	callstack 26
  1983   000824                     
  1984                           ;MCAL_Layer/TIMER1/hal_timer1.c: 150:     if (1==_timer->timer1_oscillator_enable){
  1985   000824  EE20 F004          	lfsr	2,4
  1986   000828  5035               	movf	timer1_oscillator_enable@_timer^0,w,c
  1987   00082A  26D9               	addwf	fsr2l,f,c
  1988   00082C  5036               	movf	(timer1_oscillator_enable@_timer+1)^0,w,c
  1989   00082E  22DA               	addwfc	fsr2h,f,c
  1990   000830  A8DF               	btfss	indf2,4,c
  1991   000832  EF1D  F004         	goto	u1001
  1992   000836  EF1F  F004         	goto	u1000
  1993   00083A                     u1001:
  1994   00083A  EF22  F004         	goto	l1701
  1995   00083E                     u1000:
  1996   00083E                     
  1997                           ;MCAL_Layer/TIMER1/hal_timer1.c: 151:         (T1CONbits.T1OSCEN=1);
  1998   00083E  86CD               	bsf	205,3,c	;volatile
  1999                           
  2000                           ;MCAL_Layer/TIMER1/hal_timer1.c: 152:     }
  2001   000840  EF30  F004         	goto	l337
  2002   000844                     l1701:
  2003   000844  EE20 F004          	lfsr	2,4
  2004   000848  5035               	movf	timer1_oscillator_enable@_timer^0,w,c
  2005   00084A  26D9               	addwf	fsr2l,f,c
  2006   00084C  5036               	movf	(timer1_oscillator_enable@_timer+1)^0,w,c
  2007   00084E  22DA               	addwfc	fsr2h,f,c
  2008   000850  B8DF               	btfsc	indf2,4,c
  2009   000852  EF2D  F004         	goto	u1011
  2010   000856  EF2F  F004         	goto	u1010
  2011   00085A                     u1011:
  2012   00085A  EF30  F004         	goto	l337
  2013   00085E                     u1010:
  2014   00085E                     
  2015                           ;MCAL_Layer/TIMER1/hal_timer1.c: 154:         (T1CONbits.T1OSCEN=0);
  2016   00085E  96CD               	bcf	205,3,c	;volatile
  2017   000860                     l337:
  2018   000860  0012               	return		;funcret
  2019   000862                     __end_of_timer1_oscillator_enable:
  2020                           	callstack 0
  2021                           
  2022 ;; *************** function _interruptManager *****************
  2023 ;; Defined at:
  2024 ;;		line 19 in file "MCAL_Layer/interrupt/mcal_interrupt_manager.c"
  2025 ;; Parameters:    Size  Location     Type
  2026 ;;		None
  2027 ;; Auto vars:     Size  Location     Type
  2028 ;;		None
  2029 ;; Return value:  Size  Location     Type
  2030 ;;                  1    wreg      void 
  2031 ;; Registers used:
  2032 ;;		wreg, status,2, status,0, pcl, pclath, pclatu, tosl, cstack
  2033 ;; Tracked objects:
  2034 ;;		On entry : 0/0
  2035 ;;		On exit  : 0/0
  2036 ;;		Unchanged: 0/0
  2037 ;; Data sizes:     COMRAM   BANK0   BANK1   BANK2   BANK3   BANK4   BANK5   BANK6   BANK7   BANK8   BANK9  BANK10  BANK1
      +1  BANK12  BANK13  BANK14  BANK15
  2038 ;;      Params:         0       0       0       0       0       0       0       0       0       0       0       0       
      +0       0       0       0       0
  2039 ;;      Locals:         0       0       0       0       0       0       0       0       0       0       0       0       
      +0       0       0       0       0
  2040 ;;      Temps:          2       0       0       0       0       0       0       0       0       0       0       0       
      +0       0       0       0       0
  2041 ;;      Totals:         2       0       0       0       0       0       0       0       0       0       0       0       
      +0       0       0       0       0
  2042 ;;Total ram usage:        2 bytes
  2043 ;; Hardware stack levels used: 1
  2044 ;; Hardware stack levels required when called: 2
  2045 ;; This function calls:
  2046 ;;		_TIMER0_ISR
  2047 ;;		_TIMER1_ISR
  2048 ;; This function is called by:
  2049 ;;		Interrupt level 2
  2050 ;; This function uses a non-reentrant model
  2051 ;;
  2052                           
  2053                           	psect	intcode
  2054   000008                     __pintcode:
  2055                           	callstack 0
  2056   000008                     _interruptManager:
  2057                           	callstack 25
  2058                           
  2059                           ;incstack = 0
  2060   000008  8258               	bsf	int$flags,1,c	;set compiler interrupt flag (level 2)
  2061   00000A  EDC8  F003         	call	int_func,f	;refresh shadow registers
  2062                           
  2063                           	psect	intcode_body
  2064   000790                     __pintcode_body:
  2065                           	callstack 25
  2066   000790                     int_func:
  2067                           	callstack 25
  2068   000790  0006               	pop		; remove dummy address from shadow register refresh
  2069   000792  CFFA F033          	movff	pclath,??_interruptManager
  2070   000796  CFFB F034          	movff	pclatu,??_interruptManager+1
  2071   00079A                     
  2072                           ;MCAL_Layer/interrupt/mcal_interrupt_manager.c: 23:     if ((1==INTCONbits.TMR0IE) && (1
      +                          ==INTCONbits.TMR0IF)){
  2073   00079A  AAF2               	btfss	242,5,c	;volatile
  2074   00079C  EFD2  F003         	goto	i2u62_41
  2075   0007A0  EFD4  F003         	goto	i2u62_40
  2076   0007A4                     i2u62_41:
  2077   0007A4  EFDD  F003         	goto	i2l1477
  2078   0007A8                     i2u62_40:
  2079   0007A8  A4F2               	btfss	242,2,c	;volatile
  2080   0007AA  EFD9  F003         	goto	i2u63_41
  2081   0007AE  EFDB  F003         	goto	i2u63_40
  2082   0007B2                     i2u63_41:
  2083   0007B2  EFDD  F003         	goto	i2l1477
  2084   0007B6                     i2u63_40:
  2085   0007B6                     
  2086                           ;MCAL_Layer/interrupt/mcal_interrupt_manager.c: 24:         TIMER0_ISR();
  2087   0007B6  EC6A  F004         	call	_TIMER0_ISR	;wreg free
  2088   0007BA                     i2l1477:
  2089                           
  2090                           ;MCAL_Layer/interrupt/mcal_interrupt_manager.c: 28:     if ((1==PIE1bits.TMR1IE) && (1==
      +                          PIR1bits.TMR1IF)){
  2091   0007BA  A09D               	btfss	157,0,c	;volatile
  2092   0007BC  EFE2  F003         	goto	i2u64_41
  2093   0007C0  EFE4  F003         	goto	i2u64_40
  2094   0007C4                     i2u64_41:
  2095   0007C4  EFED  F003         	goto	i2l207
  2096   0007C8                     i2u64_40:
  2097   0007C8  A09E               	btfss	158,0,c	;volatile
  2098   0007CA  EFE9  F003         	goto	i2u65_41
  2099   0007CE  EFEB  F003         	goto	i2u65_40
  2100   0007D2                     i2u65_41:
  2101   0007D2  EFED  F003         	goto	i2l207
  2102   0007D6                     i2u65_40:
  2103   0007D6                     
  2104                           ;MCAL_Layer/interrupt/mcal_interrupt_manager.c: 29:         TIMER1_ISR();
  2105   0007D6  EC4E  F004         	call	_TIMER1_ISR	;wreg free
  2106   0007DA                     i2l207:
  2107   0007DA  C034  FFFB         	movff	??_interruptManager+1,pclatu
  2108   0007DE  C033  FFFA         	movff	??_interruptManager,pclath
  2109   0007E2  9258               	bcf	int$flags,1,c	;clear compiler interrupt flag (level 2)
  2110   0007E4  0011               	retfie		f
  2111   0007E6                     __end_of_interruptManager:
  2112                           	callstack 0
  2113                           
  2114 ;; *************** function _TIMER1_ISR *****************
  2115 ;; Defined at:
  2116 ;;		line 169 in file "MCAL_Layer/TIMER1/hal_timer1.c"
  2117 ;; Parameters:    Size  Location     Type
  2118 ;;		None
  2119 ;; Auto vars:     Size  Location     Type
  2120 ;;		None
  2121 ;; Return value:  Size  Location     Type
  2122 ;;                  1    wreg      void 
  2123 ;; Registers used:
  2124 ;;		wreg, status,2, status,0, pcl, pclath, pclatu, tosl, cstack
  2125 ;; Tracked objects:
  2126 ;;		On entry : 0/0
  2127 ;;		On exit  : 0/0
  2128 ;;		Unchanged: 0/0
  2129 ;; Data sizes:     COMRAM   BANK0   BANK1   BANK2   BANK3   BANK4   BANK5   BANK6   BANK7   BANK8   BANK9  BANK10  BANK1
      +1  BANK12  BANK13  BANK14  BANK15
  2130 ;;      Params:         0       0       0       0       0       0       0       0       0       0       0       0       
      +0       0       0       0       0
  2131 ;;      Locals:         0       0       0       0       0       0       0       0       0       0       0       0       
      +0       0       0       0       0
  2132 ;;      Temps:          0       0       0       0       0       0       0       0       0       0       0       0       
      +0       0       0       0       0
  2133 ;;      Totals:         0       0       0       0       0       0       0       0       0       0       0       0       
      +0       0       0       0       0
  2134 ;;Total ram usage:        0 bytes
  2135 ;; Hardware stack levels used: 1
  2136 ;; Hardware stack levels required when called: 1
  2137 ;; This function calls:
  2138 ;;		Absolute function
  2139 ;;		_Timer1InterruptHandler
  2140 ;; This function is called by:
  2141 ;;		_interruptManager
  2142 ;; This function uses a non-reentrant model
  2143 ;;
  2144                           
  2145                           	psect	text14
  2146   00089C                     __ptext14:
  2147                           	callstack 0
  2148   00089C                     _TIMER1_ISR:
  2149                           	callstack 25
  2150   00089C                     
  2151                           ;MCAL_Layer/TIMER1/hal_timer1.c: 171:     (PIR1bits.TMR1IF=0);
  2152   00089C  909E               	bcf	158,0,c	;volatile
  2153   00089E                     
  2154                           ;MCAL_Layer/TIMER1/hal_timer1.c: 172:     TMR1H=(preload_timer1) >>8;
  2155   00089E  504A               	movf	(_preload_timer1+1)^0,w,c
  2156   0008A0  6ECF               	movwf	207,c	;volatile
  2157   0008A2                     
  2158                           ;MCAL_Layer/TIMER1/hal_timer1.c: 173:     TMR1L=(uint8)(preload_timer1);
  2159   0008A2  C049  FFCE         	movff	_preload_timer1,4046	;volatile
  2160   0008A6                     
  2161                           ;MCAL_Layer/TIMER1/hal_timer1.c: 174:     if (TIMER1_interruptHandler){
  2162   0008A6  504B               	movf	_TIMER1_interruptHandler^0,w,c
  2163   0008A8  104C               	iorwf	(_TIMER1_interruptHandler+1)^0,w,c
  2164   0008AA  B4D8               	btfsc	status,2,c
  2165   0008AC  EF5A  F004         	goto	i2u33_41
  2166   0008B0  EF5C  F004         	goto	i2u33_40
  2167   0008B4                     i2u33_41:
  2168   0008B4  EF69  F004         	goto	i2l348
  2169   0008B8                     i2u33_40:
  2170   0008B8                     
  2171                           ;MCAL_Layer/TIMER1/hal_timer1.c: 175:         TIMER1_interruptHandler();
  2172   0008B8  D802               	call	i2u34_48
  2173   0008BA  EF69  F004         	goto	i2u34_49
  2174   0008BE                     i2u34_48:
  2175   0008BE  0005               	push	
  2176   0008C0  6EFA               	movwf	pclath,c
  2177   0008C2  504B               	movf	_TIMER1_interruptHandler^0,w,c
  2178   0008C4  6EFD               	movwf	tosl,c
  2179   0008C6  504C               	movf	(_TIMER1_interruptHandler+1)^0,w,c
  2180   0008C8  6EFE               	movwf	tosh,c
  2181   0008CA  50F8               	movf	tblptru,w,c
  2182   0008CC  6EFF               	movwf	tosu,c
  2183   0008CE  50FA               	movf	pclath,w,c
  2184   0008D0  0012               	return		;indir
  2185   0008D2                     i2u34_49:
  2186   0008D2                     i2l348:
  2187   0008D2  0012               	return		;funcret
  2188   0008D4                     __end_of_TIMER1_ISR:
  2189                           	callstack 0
  2190                           
  2191 ;; *************** function _Timer1InterruptHandler *****************
  2192 ;; Defined at:
  2193 ;;		line 59 in file "application.c"
  2194 ;; Parameters:    Size  Location     Type
  2195 ;;		None
  2196 ;; Auto vars:     Size  Location     Type
  2197 ;;		None
  2198 ;; Return value:  Size  Location     Type
  2199 ;;                  1    wreg      void 
  2200 ;; Registers used:
  2201 ;;		wreg, status,2, status,0
  2202 ;; Tracked objects:
  2203 ;;		On entry : 0/0
  2204 ;;		On exit  : 0/0
  2205 ;;		Unchanged: 0/0
  2206 ;; Data sizes:     COMRAM   BANK0   BANK1   BANK2   BANK3   BANK4   BANK5   BANK6   BANK7   BANK8   BANK9  BANK10  BANK1
      +1  BANK12  BANK13  BANK14  BANK15
  2207 ;;      Params:         0       0       0       0       0       0       0       0       0       0       0       0       
      +0       0       0       0       0
  2208 ;;      Locals:         0       0       0       0       0       0       0       0       0       0       0       0       
      +0       0       0       0       0
  2209 ;;      Temps:          0       0       0       0       0       0       0       0       0       0       0       0       
      +0       0       0       0       0
  2210 ;;      Totals:         0       0       0       0       0       0       0       0       0       0       0       0       
      +0       0       0       0       0
  2211 ;;Total ram usage:        0 bytes
  2212 ;; Hardware stack levels used: 1
  2213 ;; This function calls:
  2214 ;;		Nothing
  2215 ;; This function is called by:
  2216 ;;		_TIMER1_ISR
  2217 ;; This function uses a non-reentrant model
  2218 ;;
  2219                           
  2220                           	psect	text15
  2221   00093E                     __ptext15:
  2222                           	callstack 0
  2223   00093E                     _Timer1InterruptHandler:
  2224                           	callstack 25
  2225   00093E                     
  2226                           ;application.c: 60:     u16Counter++;
  2227   00093E  4A47               	infsnz	_u16Counter^0,f,c	;volatile
  2228   000940  2A48               	incf	(_u16Counter+1)^0,f,c	;volatile
  2229   000942                     
  2230                           ;application.c: 61:     if (u16Counter==100){
  2231   000942  0E64               	movlw	100
  2232   000944  1847               	xorwf	_u16Counter^0,w,c	;volatile
  2233   000946  1048               	iorwf	(_u16Counter+1)^0,w,c	;volatile
  2234   000948  A4D8               	btfss	status,2,c
  2235   00094A  EFA9  F004         	goto	i2u21_41
  2236   00094E  EFAB  F004         	goto	i2u21_40
  2237   000952                     i2u21_41:
  2238   000952  EFB1  F004         	goto	i2l395
  2239   000956                     i2u21_40:
  2240   000956                     
  2241                           ;application.c: 62:         u8ValueOfSeg--;
  2242   000956  061F               	decf	_u8ValueOfSeg^0,f,c	;volatile
  2243                           
  2244                           ;application.c: 63:         ValueOfSecond++;
  2245   000958  2A53               	incf	_ValueOfSecond^0,f,c	;volatile
  2246   00095A                     
  2247                           ;application.c: 64:         u16Counter=0;
  2248   00095A  0E00               	movlw	0
  2249   00095C  6E48               	movwf	(_u16Counter+1)^0,c	;volatile
  2250   00095E  0E00               	movlw	0
  2251   000960  6E47               	movwf	_u16Counter^0,c	;volatile
  2252   000962                     i2l395:
  2253   000962  0012               	return		;funcret
  2254   000964                     __end_of_Timer1InterruptHandler:
  2255                           	callstack 0
  2256                           
  2257 ;; *************** function _TIMER0_ISR *****************
  2258 ;; Defined at:
  2259 ;;		line 173 in file "MCAL_Layer/TIMER0/hal_timer0.c"
  2260 ;; Parameters:    Size  Location     Type
  2261 ;;		None
  2262 ;; Auto vars:     Size  Location     Type
  2263 ;;		None
  2264 ;; Return value:  Size  Location     Type
  2265 ;;                  1    wreg      void 
  2266 ;; Registers used:
  2267 ;;		wreg, status,2, status,0, pcl, pclath, pclatu, tosl, cstack
  2268 ;; Tracked objects:
  2269 ;;		On entry : 0/0
  2270 ;;		On exit  : 0/0
  2271 ;;		Unchanged: 0/0
  2272 ;; Data sizes:     COMRAM   BANK0   BANK1   BANK2   BANK3   BANK4   BANK5   BANK6   BANK7   BANK8   BANK9  BANK10  BANK1
      +1  BANK12  BANK13  BANK14  BANK15
  2273 ;;      Params:         0       0       0       0       0       0       0       0       0       0       0       0       
      +0       0       0       0       0
  2274 ;;      Locals:         0       0       0       0       0       0       0       0       0       0       0       0       
      +0       0       0       0       0
  2275 ;;      Temps:          0       0       0       0       0       0       0       0       0       0       0       0       
      +0       0       0       0       0
  2276 ;;      Totals:         0       0       0       0       0       0       0       0       0       0       0       0       
      +0       0       0       0       0
  2277 ;;Total ram usage:        0 bytes
  2278 ;; Hardware stack levels used: 1
  2279 ;; Hardware stack levels required when called: 1
  2280 ;; This function calls:
  2281 ;;		Absolute function
  2282 ;;		_Timer0Interrupt
  2283 ;; This function is called by:
  2284 ;;		_interruptManager
  2285 ;; This function uses a non-reentrant model
  2286 ;;
  2287                           
  2288                           	psect	text16
  2289   0008D4                     __ptext16:
  2290                           	callstack 0
  2291   0008D4                     _TIMER0_ISR:
  2292                           	callstack 25
  2293   0008D4                     
  2294                           ;MCAL_Layer/TIMER0/hal_timer0.c: 175:     (INTCONbits.TMR0IF=0);
  2295   0008D4  94F2               	bcf	242,2,c	;volatile
  2296   0008D6                     
  2297                           ;MCAL_Layer/TIMER0/hal_timer0.c: 176:     TMR0H=(preload_timer) >> 8;
  2298   0008D6  504E               	movf	(_preload_timer+1)^0,w,c
  2299   0008D8  6ED7               	movwf	215,c	;volatile
  2300   0008DA                     
  2301                           ;MCAL_Layer/TIMER0/hal_timer0.c: 177:     TMR0L=(uint8)(preload_timer);
  2302   0008DA  C04D  FFD6         	movff	_preload_timer,4054	;volatile
  2303   0008DE                     
  2304                           ;MCAL_Layer/TIMER0/hal_timer0.c: 178:     if (TIMER0_interruptHandler){
  2305   0008DE  504F               	movf	_TIMER0_interruptHandler^0,w,c
  2306   0008E0  1050               	iorwf	(_TIMER0_interruptHandler+1)^0,w,c
  2307   0008E2  B4D8               	btfsc	status,2,c
  2308   0008E4  EF76  F004         	goto	i2u31_41
  2309   0008E8  EF78  F004         	goto	i2u31_40
  2310   0008EC                     i2u31_41:
  2311   0008EC  EF85  F004         	goto	i2l275
  2312   0008F0                     i2u31_40:
  2313   0008F0                     
  2314                           ;MCAL_Layer/TIMER0/hal_timer0.c: 179:         TIMER0_interruptHandler();
  2315   0008F0  D802               	call	i2u32_48
  2316   0008F2  EF85  F004         	goto	i2u32_49
  2317   0008F6                     i2u32_48:
  2318   0008F6  0005               	push	
  2319   0008F8  6EFA               	movwf	pclath,c
  2320   0008FA  504F               	movf	_TIMER0_interruptHandler^0,w,c
  2321   0008FC  6EFD               	movwf	tosl,c
  2322   0008FE  5050               	movf	(_TIMER0_interruptHandler+1)^0,w,c
  2323   000900  6EFE               	movwf	tosh,c
  2324   000902  50F8               	movf	tblptru,w,c
  2325   000904  6EFF               	movwf	tosu,c
  2326   000906  50FA               	movf	pclath,w,c
  2327   000908  0012               	return		;indir
  2328   00090A                     i2u32_49:
  2329   00090A                     i2l275:
  2330   00090A  0012               	return		;funcret
  2331   00090C                     __end_of_TIMER0_ISR:
  2332                           	callstack 0
  2333                           
  2334 ;; *************** function _Timer0Interrupt *****************
  2335 ;; Defined at:
  2336 ;;		line 40 in file "MCAL_Layer/Delay/M_Delay.c"
  2337 ;; Parameters:    Size  Location     Type
  2338 ;;		None
  2339 ;; Auto vars:     Size  Location     Type
  2340 ;;		None
  2341 ;; Return value:  Size  Location     Type
  2342 ;;                  1    wreg      void 
  2343 ;; Registers used:
  2344 ;;		status,2, status,0
  2345 ;; Tracked objects:
  2346 ;;		On entry : 0/0
  2347 ;;		On exit  : 0/0
  2348 ;;		Unchanged: 0/0
  2349 ;; Data sizes:     COMRAM   BANK0   BANK1   BANK2   BANK3   BANK4   BANK5   BANK6   BANK7   BANK8   BANK9  BANK10  BANK1
      +1  BANK12  BANK13  BANK14  BANK15
  2350 ;;      Params:         0       0       0       0       0       0       0       0       0       0       0       0       
      +0       0       0       0       0
  2351 ;;      Locals:         0       0       0       0       0       0       0       0       0       0       0       0       
      +0       0       0       0       0
  2352 ;;      Temps:          0       0       0       0       0       0       0       0       0       0       0       0       
      +0       0       0       0       0
  2353 ;;      Totals:         0       0       0       0       0       0       0       0       0       0       0       0       
      +0       0       0       0       0
  2354 ;;Total ram usage:        0 bytes
  2355 ;; Hardware stack levels used: 1
  2356 ;; This function calls:
  2357 ;;		Nothing
  2358 ;; This function is called by:
  2359 ;;		_TIMER0_ISR
  2360 ;; This function uses a non-reentrant model
  2361 ;;
  2362                           
  2363                           	psect	text17
  2364   000964                     __ptext17:
  2365                           	callstack 0
  2366   000964                     _Timer0Interrupt:
  2367                           	callstack 25
  2368   000964                     
  2369                           ;MCAL_Layer/Delay/M_Delay.c: 41:     u16DelayCounter++;
  2370   000964  4A51               	infsnz	_u16DelayCounter^0,f,c	;volatile
  2371   000966  2A52               	incf	(_u16DelayCounter+1)^0,f,c	;volatile
  2372   000968  0012               	return		;funcret
  2373   00096A                     __end_of_Timer0Interrupt:
  2374                           	callstack 0
  2375   000000                     
  2376                           	psect	text18
  2377   000000                     __ptext18:
  2378                           	callstack 0
  2379   000000                     
  2380                           	psect	rparam
  2381   000000                     
  2382                           	psect	temp
  2383   000058                     btemp:
  2384                           	callstack 0
  2385   000058                     	ds	1
  2386   000000                     int$flags	set	btemp
  2387   000000                     wtemp8	set	btemp+1
  2388   000000                     ttemp5	set	btemp+1
  2389   000000                     ttemp6	set	btemp+4
  2390   000000                     ttemp7	set	btemp+8
  2391                           
  2392                           	psect	idloc
  2393                           
  2394                           ;Config register IDLOC0 @ 0x200000
  2395                           ;	unspecified, using default values
  2396   200000                     	org	2097152
  2397   200000  FF                 	db	255
  2398                           
  2399                           ;Config register IDLOC1 @ 0x200001
  2400                           ;	unspecified, using default values
  2401   200001                     	org	2097153
  2402   200001  FF                 	db	255
  2403                           
  2404                           ;Config register IDLOC2 @ 0x200002
  2405                           ;	unspecified, using default values
  2406   200002                     	org	2097154
  2407   200002  FF                 	db	255
  2408                           
  2409                           ;Config register IDLOC3 @ 0x200003
  2410                           ;	unspecified, using default values
  2411   200003                     	org	2097155
  2412   200003  FF                 	db	255
  2413                           
  2414                           ;Config register IDLOC4 @ 0x200004
  2415                           ;	unspecified, using default values
  2416   200004                     	org	2097156
  2417   200004  FF                 	db	255
  2418                           
  2419                           ;Config register IDLOC5 @ 0x200005
  2420                           ;	unspecified, using default values
  2421   200005                     	org	2097157
  2422   200005  FF                 	db	255
  2423                           
  2424                           ;Config register IDLOC6 @ 0x200006
  2425                           ;	unspecified, using default values
  2426   200006                     	org	2097158
  2427   200006  FF                 	db	255
  2428                           
  2429                           ;Config register IDLOC7 @ 0x200007
  2430                           ;	unspecified, using default values
  2431   200007                     	org	2097159
  2432   200007  FF                 	db	255
  2433                           
  2434                           	psect	config
  2435                           
  2436                           ; Padding undefined space
  2437   300000                     	org	3145728
  2438   300000  FF                 	db	255
  2439                           
  2440                           ;Config register CONFIG1H @ 0x300001
  2441                           ;	Oscillator Selection bits
  2442                           ;	OSC = HS, HS oscillator
  2443                           ;	Fail-Safe Clock Monitor Enable bit
  2444                           ;	FCMEN = OFF, Fail-Safe Clock Monitor disabled
  2445                           ;	Internal/External Oscillator Switchover bit
  2446                           ;	IESO = OFF, Oscillator Switchover mode disabled
  2447   300001                     	org	3145729
  2448   300001  02                 	db	2
  2449                           
  2450                           ;Config register CONFIG2L @ 0x300002
  2451                           ;	Power-up Timer Enable bit
  2452                           ;	PWRT = OFF, PWRT disabled
  2453                           ;	Brown-out Reset Enable bits
  2454                           ;	BOREN = OFF, Brown-out Reset disabled in hardware and software
  2455                           ;	Brown Out Reset Voltage bits
  2456                           ;	BORV = 1, 
  2457   300002                     	org	3145730
  2458   300002  09                 	db	9
  2459                           
  2460                           ;Config register CONFIG2H @ 0x300003
  2461                           ;	Watchdog Timer Enable bit
  2462                           ;	WDT = OFF, WDT disabled (control is placed on the SWDTEN bit)
  2463                           ;	Watchdog Timer Postscale Select bits
  2464                           ;	WDTPS = 512, 1:512
  2465   300003                     	org	3145731
  2466   300003  12                 	db	18
  2467                           
  2468                           ; Padding undefined space
  2469   300004                     	org	3145732
  2470   300004  FF                 	db	255
  2471                           
  2472                           ;Config register CONFIG3H @ 0x300005
  2473                           ;	CCP2 MUX bit
  2474                           ;	CCP2MX = PORTC, CCP2 input/output is multiplexed with RC1
  2475                           ;	PORTB A/D Enable bit
  2476                           ;	PBADEN = OFF, PORTB<4:0> pins are configured as digital I/O on Reset
  2477                           ;	Low-Power Timer1 Oscillator Enable bit
  2478                           ;	LPT1OSC = OFF, Timer1 configured for higher power operation
  2479                           ;	MCLR Pin Enable bit
  2480                           ;	MCLRE = ON, MCLR pin enabled; RE3 input pin disabled
  2481   300005                     	org	3145733
  2482   300005  81                 	db	129
  2483                           
  2484                           ;Config register CONFIG4L @ 0x300006
  2485                           ;	Stack Full/Underflow Reset Enable bit
  2486                           ;	STVREN = ON, Stack full/underflow will cause Reset
  2487                           ;	Single-Supply ICSP Enable bit
  2488                           ;	LVP = OFF, Single-Supply ICSP disabled
  2489                           ;	Extended Instruction Set Enable bit
  2490                           ;	XINST = OFF, Instruction set extension and Indexed Addressing mode disabled (Legacy mo
      +                          de)
  2491                           ;	Background Debugger Enable bit
  2492                           ;	DEBUG = 0x1, unprogrammed default
  2493   300006                     	org	3145734
  2494   300006  81                 	db	129
  2495                           
  2496                           ; Padding undefined space
  2497   300007                     	org	3145735
  2498   300007  FF                 	db	255
  2499                           
  2500                           ;Config register CONFIG5L @ 0x300008
  2501                           ;	Code Protection bit
  2502                           ;	CP0 = OFF, Block 0 (000800-003FFFh) not code-protected
  2503                           ;	Code Protection bit
  2504                           ;	CP1 = OFF, Block 1 (004000-007FFFh) not code-protected
  2505                           ;	Code Protection bit
  2506                           ;	CP2 = OFF, Block 2 (008000-00BFFFh) not code-protected
  2507                           ;	Code Protection bit
  2508                           ;	CP3 = OFF, Block 3 (00C000-00FFFFh) not code-protected
  2509   300008                     	org	3145736
  2510   300008  0F                 	db	15
  2511                           
  2512                           ;Config register CONFIG5H @ 0x300009
  2513                           ;	Boot Block Code Protection bit
  2514                           ;	CPB = OFF, Boot block (000000-0007FFh) not code-protected
  2515                           ;	Data EEPROM Code Protection bit
  2516                           ;	CPD = OFF, Data EEPROM not code-protected
  2517   300009                     	org	3145737
  2518   300009  C0                 	db	192
  2519                           
  2520                           ;Config register CONFIG6L @ 0x30000A
  2521                           ;	Write Protection bit
  2522                           ;	WRT0 = OFF, Block 0 (000800-003FFFh) not write-protected
  2523                           ;	Write Protection bit
  2524                           ;	WRT1 = OFF, Block 1 (004000-007FFFh) not write-protected
  2525                           ;	Write Protection bit
  2526                           ;	WRT2 = OFF, Block 2 (008000-00BFFFh) not write-protected
  2527                           ;	Write Protection bit
  2528                           ;	WRT3 = OFF, Block 3 (00C000-00FFFFh) not write-protected
  2529   30000A                     	org	3145738
  2530   30000A  0F                 	db	15
  2531                           
  2532                           ;Config register CONFIG6H @ 0x30000B
  2533                           ;	Configuration Register Write Protection bit
  2534                           ;	WRTC = OFF, Configuration registers (300000-3000FFh) not write-protected
  2535                           ;	Boot Block Write Protection bit
  2536                           ;	WRTB = OFF, Boot Block (000000-0007FFh) not write-protected
  2537                           ;	Data EEPROM Write Protection bit
  2538                           ;	WRTD = OFF, Data EEPROM not write-protected
  2539   30000B                     	org	3145739
  2540   30000B  E0                 	db	224
  2541                           
  2542                           ;Config register CONFIG7L @ 0x30000C
  2543                           ;	Table Read Protection bit
  2544                           ;	EBTR0 = OFF, Block 0 (000800-003FFFh) not protected from table reads executed in other
      +                           blocks
  2545                           ;	Table Read Protection bit
  2546                           ;	EBTR1 = OFF, Block 1 (004000-007FFFh) not protected from table reads executed in other
      +                           blocks
  2547                           ;	Table Read Protection bit
  2548                           ;	EBTR2 = OFF, Block 2 (008000-00BFFFh) not protected from table reads executed in other
      +                           blocks
  2549                           ;	Table Read Protection bit
  2550                           ;	EBTR3 = OFF, Block 3 (00C000-00FFFFh) not protected from table reads executed in other
      +                           blocks
  2551   30000C                     	org	3145740
  2552   30000C  0F                 	db	15
  2553                           
  2554                           ;Config register CONFIG7H @ 0x30000D
  2555                           ;	Boot Block Table Read Protection bit
  2556                           ;	EBTRB = OFF, Boot Block (000000-0007FFh) not protected from table reads executed in ot
      +                          her blocks
  2557   30000D                     	org	3145741
  2558   30000D  40                 	db	64
  2559                           tosu	equ	0xFFF
  2560                           tosh	equ	0xFFE
  2561                           tosl	equ	0xFFD
  2562                           stkptr	equ	0xFFC
  2563                           pclatu	equ	0xFFB
  2564                           pclath	equ	0xFFA
  2565                           pcl	equ	0xFF9
  2566                           tblptru	equ	0xFF8
  2567                           tblptrh	equ	0xFF7
  2568                           tblptrl	equ	0xFF6
  2569                           tablat	equ	0xFF5
  2570                           prodh	equ	0xFF4
  2571                           prodl	equ	0xFF3
  2572                           indf0	equ	0xFEF
  2573                           postinc0	equ	0xFEE
  2574                           postdec0	equ	0xFED
  2575                           preinc0	equ	0xFEC
  2576                           plusw0	equ	0xFEB
  2577                           fsr0h	equ	0xFEA
  2578                           fsr0l	equ	0xFE9
  2579                           wreg	equ	0xFE8
  2580                           indf1	equ	0xFE7
  2581                           postinc1	equ	0xFE6
  2582                           postdec1	equ	0xFE5
  2583                           preinc1	equ	0xFE4
  2584                           plusw1	equ	0xFE3
  2585                           fsr1h	equ	0xFE2
  2586                           fsr1l	equ	0xFE1
  2587                           bsr	equ	0xFE0
  2588                           indf2	equ	0xFDF
  2589                           postinc2	equ	0xFDE
  2590                           postdec2	equ	0xFDD
  2591                           preinc2	equ	0xFDC
  2592                           plusw2	equ	0xFDB
  2593                           fsr2h	equ	0xFDA
  2594                           fsr2l	equ	0xFD9
  2595                           status	equ	0xFD8

Data Sizes:
    Strings     0
    Constant    0
    Data        50
    BSS         17
    Persistent  0
    Stack       0

Auto Spaces:
    Space          Size  Autos    Used
    COMRAM          126     20      87
    BANK0           128      0       0
    BANK1           256      0       0
    BANK2           256      0       0
    BANK3           256      0       0
    BANK4           256      0       0
    BANK5           256      0       0
    BANK6           256      0       0
    BANK7           256      0       0
    BANK8           256      0       0
    BANK9           256      0       0
    BANK10          256      0       0
    BANK11          256      0       0
    BANK12          256      0       0
    BANK13          256      0       0
    BANK14          256      0       0
    BANK15          128      0       0

Pointer List with Targets:

    Timer1Obj.TIMER1_HandlerInterrupt	PTR FTN()void  size(2) Largest target is 1
		 -> Timer1InterruptHandler(), 

    timer1_select_reg_mode@_timer.TIMER1_HandlerInterrupt	PTR FTN()void  size(2) Largest target is 1
		 -> Timer1InterruptHandler(), 

    timer1_select_reg_mode@_timer	PTR const struct . size(2) Largest target is 5
		 -> Timer1Obj(COMRAM[5]), 

    timer1_oscillator_enable@_timer.TIMER1_HandlerInterrupt	PTR FTN()void  size(2) Largest target is 1
		 -> Timer1InterruptHandler(), 

    timer1_oscillator_enable@_timer	PTR const struct . size(2) Largest target is 5
		 -> Timer1Obj(COMRAM[5]), 

    timer1_select_mode_timer_or_counter@_timer.TIMER1_HandlerInterrupt	PTR FTN()void  size(2) Largest target is 1
		 -> Timer1InterruptHandler(), 

    timer1_select_mode_timer_or_counter@_timer	PTR const struct . size(2) Largest target is 5
		 -> Timer1Obj(COMRAM[5]), 

    TIMER1_interruptHandler	PTR FTN()void  size(2) Largest target is 1
		 -> Timer1InterruptHandler(), Absolute function(), 

    S622$TIMER1_HandlerInterrupt	PTR FTN()void  size(2) Largest target is 1
		 -> Timer1InterruptHandler(), 

    Timer1_Init@_timer.TIMER1_HandlerInterrupt	PTR FTN()void  size(2) Largest target is 1
		 -> Timer1InterruptHandler(), 

    Timer1_Init@_timer	PTR const struct . size(2) Largest target is 5
		 -> Timer1Obj(COMRAM[5]), 

    Timer0_mode_timer_or_counter_selcet@_timer.TIMER0_HandlerInterrupt	PTR FTN()void  size(2) Largest target is 1
		 -> Timer0Interrupt(), 

    Timer0_mode_of_register_size_selcet@_timer.TIMER0_HandlerInterrupt	PTR FTN()void  size(2) Largest target is 1
		 -> Timer0Interrupt(), 

    Timer0_prescaler_selcet@_timer.TIMER0_HandlerInterrupt	PTR FTN()void  size(2) Largest target is 1
		 -> Timer0Interrupt(), 

    TIMER0_interruptHandler	PTR FTN()void  size(2) Largest target is 1
		 -> Absolute function(), Timer0Interrupt(), 

    Timer0_Init@_timer.TIMER0_HandlerInterrupt	PTR FTN()void  size(2) Largest target is 1
		 -> Timer0Interrupt(), 

    gpio_Pin_Intialize@pin_config	PTR const struct . size(2) Largest target is 5
		 -> SegObj.segment_pin(COMRAM[4]), SegObj(COMRAM[5]), led_initialize@pin_config(COMRAM[1]), 

    gpio_Pin_Write_Logic@pin_config	PTR const struct . size(2) Largest target is 5
		 -> SegObj.segment_pin(COMRAM[4]), SegObj(COMRAM[5]), led_turn_off@pin_config(COMRAM[1]), led_turn_on@pin_config(COMRAM[1]), 
		 -> led_initialize@pin_config(COMRAM[1]), 

    gpio_Pin_Derction_Intialize@pin_config	PTR const struct . size(2) Largest target is 5
		 -> SegObj.segment_pin(COMRAM[4]), SegObj(COMRAM[5]), led_initialize@pin_config(COMRAM[1]), 

    port_registers	PTR volatile unsigned char [5] size(2) Largest target is 1
		 -> PORTE(BITBIGSFRll[1]), PORTD(BITBIGSFRll[1]), PORTC(BITBIGSFRll[1]), PORTB(BITBIGSFRll[1]), 
		 -> PORTA(BITBIGSFRll[1]), 

    lat_registers	PTR volatile unsigned char [5] size(2) Largest target is 1
		 -> LATE(BITBIGSFRlh[1]), LATD(BITBIGSFRlh[1]), LATC(BITBIGSFRlh[1]), LATB(BITBIGSFRlh[1]), 
		 -> LATA(BITBIGSFRll[1]), 

    tris_registers	PTR volatile unsigned char [5] size(2) Largest target is 1
		 -> TRISE(BITBIGSFRhll[1]), TRISD(BITBIGSFRhll[1]), TRISC(BITBIGSFRhll[1]), TRISB(BITBIGSFRhll[1]), 
		 -> TRISA(BITBIGSFRll[1]), 

    S157$TIMER0_HandlerInterrupt	PTR FTN()void  size(2) Largest target is 1
		 -> Timer0Interrupt(), 

    TimerDelay.TIMER0_HandlerInterrupt	PTR FTN()void  size(2) Largest target is 1
		 -> Timer0Interrupt(), 

    led_turn_off@led	PTR const struct . size(2) Largest target is 1
		 -> LedRed(COMRAM[1]), LedYellow(COMRAM[1]), LedGreen(COMRAM[1]), 

    led_turn_on@led	PTR const struct . size(2) Largest target is 1
		 -> LedRed(COMRAM[1]), LedYellow(COMRAM[1]), LedGreen(COMRAM[1]), 

    led_initialize@led	PTR const struct . size(2) Largest target is 1
		 -> LedRed(COMRAM[1]), LedYellow(COMRAM[1]), LedGreen(COMRAM[1]), 

    seven_segment_write_number@seg	PTR const struct . size(2) Largest target is 5
		 -> SegObj(COMRAM[5]), 

    seven_segment_initialize@seg	PTR const struct . size(2) Largest target is 5
		 -> SegObj(COMRAM[5]), 


Critical Paths under _main in COMRAM

    _main->_led_initialize
    _seven_segment_write_number->_gpio_Pin_Write_Logic
    _seven_segment_initialize->_gpio_Pin_Intialize
    _led_turn_on->_gpio_Pin_Write_Logic
    _led_turn_off->_gpio_Pin_Write_Logic
    _led_initialize->_gpio_Pin_Intialize
    _gpio_Pin_Intialize->_gpio_Pin_Write_Logic
    _Timer1_Init->_timer1_oscillator_enable
    _Timer1_Init->_timer1_select_mode_timer_or_counter
    _Timer1_Init->_timer1_select_reg_mode

Critical Paths under _interruptManager in COMRAM

    None.

Critical Paths under _main in BANK0

    None.

Critical Paths under _interruptManager in BANK0

    None.

Critical Paths under _main in BANK1

    None.

Critical Paths under _interruptManager in BANK1

    None.

Critical Paths under _main in BANK2

    None.

Critical Paths under _interruptManager in BANK2

    None.

Critical Paths under _main in BANK3

    None.

Critical Paths under _interruptManager in BANK3

    None.

Critical Paths under _main in BANK4

    None.

Critical Paths under _interruptManager in BANK4

    None.

Critical Paths under _main in BANK5

    None.

Critical Paths under _interruptManager in BANK5

    None.

Critical Paths under _main in BANK6

    None.

Critical Paths under _interruptManager in BANK6

    None.

Critical Paths under _main in BANK7

    None.

Critical Paths under _interruptManager in BANK7

    None.

Critical Paths under _main in BANK8

    None.

Critical Paths under _interruptManager in BANK8

    None.

Critical Paths under _main in BANK9

    None.

Critical Paths under _interruptManager in BANK9

    None.

Critical Paths under _main in BANK10

    None.

Critical Paths under _interruptManager in BANK10

    None.

Critical Paths under _main in BANK11

    None.

Critical Paths under _interruptManager in BANK11

    None.

Critical Paths under _main in BANK12

    None.

Critical Paths under _interruptManager in BANK12

    None.

Critical Paths under _main in BANK13

    None.

Critical Paths under _interruptManager in BANK13

    None.

Critical Paths under _main in BANK14

    None.

Critical Paths under _interruptManager in BANK14

    None.

Critical Paths under _main in BANK15

    None.

Critical Paths under _interruptManager in BANK15

    None.

Call Graph Tables:

 ---------------------------------------------------------------------------------
 (Depth) Function   	        Calls       Base Space   Used Autos Params    Refs
 ---------------------------------------------------------------------------------
 (0) _main                                                 0     0      0   10553
                        _Timer1_Init
                     _led_initialize
                       _led_turn_off
                        _led_turn_on
           _seven_segment_initialize
         _seven_segment_write_number
 ---------------------------------------------------------------------------------
 (1) _seven_segment_write_number                           4     1      3    1626
                                             12 COMRAM     4     1      3
               _gpio_Pin_Write_Logic
 ---------------------------------------------------------------------------------
 (1) _seven_segment_initialize                             3     1      2    2211
                                             16 COMRAM     3     1      2
                 _gpio_Pin_Intialize
 ---------------------------------------------------------------------------------
 (1) _led_turn_on                                          5     3      2    1674
                                             12 COMRAM     4     2      2
               _gpio_Pin_Write_Logic
 ---------------------------------------------------------------------------------
 (1) _led_turn_off                                         5     3      2    1978
                                             12 COMRAM     4     2      2
               _gpio_Pin_Write_Logic
 ---------------------------------------------------------------------------------
 (1) _led_initialize                                       5     3      2    2377
                                             16 COMRAM     4     2      2
                 _gpio_Pin_Intialize
 ---------------------------------------------------------------------------------
 (2) _gpio_Pin_Intialize                                   4     2      2    2013
                                             12 COMRAM     4     2      2
        _gpio_Pin_Derction_Intialize
               _gpio_Pin_Write_Logic
 ---------------------------------------------------------------------------------
 (2) _gpio_Pin_Write_Logic                                10     7      3    1242
                                              2 COMRAM    10     7      3
 ---------------------------------------------------------------------------------
 (3) _gpio_Pin_Derction_Intialize                          9     7      2     255
                                              2 COMRAM     9     7      2
 ---------------------------------------------------------------------------------
 (1) _Timer1_Init                                          5     3      2     687
                                              4 COMRAM     4     2      2
           _timer1_oscillator_enable
_timer1_select_mode_timer_or_counter
             _timer1_select_reg_mode
 ---------------------------------------------------------------------------------
 (2) _timer1_select_reg_mode                               2     0      2     120
                                              2 COMRAM     2     0      2
 ---------------------------------------------------------------------------------
 (2) _timer1_select_mode_timer_or_counter                  2     0      2     164
                                              2 COMRAM     2     0      2
 ---------------------------------------------------------------------------------
 (2) _timer1_oscillator_enable                             2     0      2     120
                                              2 COMRAM     2     0      2
 ---------------------------------------------------------------------------------
 Estimated maximum stack depth 3
 ---------------------------------------------------------------------------------
 (Depth) Function   	        Calls       Base Space   Used Autos Params    Refs
 ---------------------------------------------------------------------------------
 (4) _interruptManager                                     2     2      0       0
                                              0 COMRAM     2     2      0
                         _TIMER0_ISR
                         _TIMER1_ISR
 ---------------------------------------------------------------------------------
 (5) _TIMER1_ISR                                           0     0      0       0
                   Absolute function *
             _Timer1InterruptHandler *
 ---------------------------------------------------------------------------------
 (6) _Timer1InterruptHandler                               0     0      0       0
 ---------------------------------------------------------------------------------
 (5) _TIMER0_ISR                                           0     0      0       0
                   Absolute function *
                    _Timer0Interrupt *
 ---------------------------------------------------------------------------------
 (6) _Timer0Interrupt                                      0     0      0       0
 ---------------------------------------------------------------------------------
 (6) Absolute function(Fake)                               0     0      0       0
 ---------------------------------------------------------------------------------
 Estimated maximum stack depth 6
 ---------------------------------------------------------------------------------

 Call Graph Graphs:

 _main (ROOT)
   _Timer1_Init
     _timer1_oscillator_enable
     _timer1_select_mode_timer_or_counter
     _timer1_select_reg_mode
   _led_initialize
     _gpio_Pin_Intialize
       _gpio_Pin_Derction_Intialize
       _gpio_Pin_Write_Logic
   _led_turn_off
     _gpio_Pin_Write_Logic
   _led_turn_on
     _gpio_Pin_Write_Logic
   _seven_segment_initialize
     _gpio_Pin_Intialize
   _seven_segment_write_number
     _gpio_Pin_Write_Logic

 _interruptManager (ROOT)
   _TIMER0_ISR
     Absolute function(Fake) *
     _Timer0Interrupt *
   _TIMER1_ISR
     Absolute function(Fake) *
     _Timer1InterruptHandler *

 Address spaces:
Name               Size   Autos  Total    Cost      Usage
BIGRAM             F7F      0       0      45        0.0%
EEDATA             400      0       0       0        0.0%
BITBANK14          100      0       0      32        0.0%
BANK14             100      0       0      33        0.0%
BITBANK13          100      0       0      30        0.0%
BANK13             100      0       0      31        0.0%
BITBANK12          100      0       0      28        0.0%
BANK12             100      0       0      29        0.0%
BITBANK11          100      0       0      26        0.0%
BANK11             100      0       0      27        0.0%
BITBANK10          100      0       0      24        0.0%
BANK10             100      0       0      25        0.0%
BITBANK9           100      0       0      22        0.0%
BANK9              100      0       0      23        0.0%
BITBANK8           100      0       0      20        0.0%
BANK8              100      0       0      21        0.0%
BITBANK7           100      0       0      18        0.0%
BANK7              100      0       0      19        0.0%
BITBANK6           100      0       0      16        0.0%
BANK6              100      0       0      17        0.0%
BITBANK5           100      0       0      14        0.0%
BANK5              100      0       0      15        0.0%
BITBANK4           100      0       0      12        0.0%
BANK4              100      0       0      13        0.0%
BITBANK3           100      0       0      10        0.0%
BANK3              100      0       0      11        0.0%
BITBANK2           100      0       0       8        0.0%
BANK2              100      0       0       9        0.0%
BITBANK1           100      0       0       6        0.0%
BANK1              100      0       0       7        0.0%
BITBANK15           80      0       0      34        0.0%
BANK15              80      0       0      35        0.0%
BITBANK0            80      0       0       4        0.0%
BANK0               80      0       0       5        0.0%
BITCOMRAM           7E      0       0       0        0.0%
COMRAM              7E     14      57       1       69.0%
BITBIGSFRhlhlll     22      0       0      40        0.0%
BITBIGSFRhlhhh      1A      0       0      37        0.0%
BITBIGSFRhh          D      0       0      36        0.0%
BITBIGSFRhlhllh      B      0       0      39        0.0%
BITBIGSFRhll         6      0       0      41        0.0%
BITBIGSFRhlhlhh      5      0       0      38        0.0%
BITBIGSFRlh          4      0       0      42        0.0%
BITBIGSFRll          4      0       0      43        0.0%
BIGSFR               0      0       0     200        0.0%
BITSFR               0      0       0     200        0.0%
SFR                  0      0       0     200        0.0%
STACK                0      0       0       2        0.0%
NULL                 0      0       0       0        0.0%
ABS                  0      0      57      44        0.0%
DATA                 0      0      57       3        0.0%
CODE                 0      0       0       0        0.0%


Microchip Technology PIC18 Macro Assembler V2.40 build 20220703182018 
Symbol Table                                                                                   Thu Jun 15 00:01:45 2023

                                          l9 078E                                           l32 058A  
                                         l16 04F4                                           l25 0676  
                                         l43 065E                                           l36 05E8  
                                         l29 06D0                                           l39 0600  
                                        l300 03C6                                          l125 0154  
                                        l302 0466                                          l142 03AE  
                                        l161 0732                                          l330 0572  
                                        l344 0822                                          l337 0860  
                                        l329 0572                                          u920 0128  
                                        u904 0072                                          u840 029A  
                                        u921 0122                                          u905 006E  
                                        u841 0296                                          u930 012A  
                                        u914 00D4                                          u850 02BC  
                                        u915 00D0                                          u851 02B8  
                                        u940 06E4                                          u941 06E0  
                                        u950 0706                                          u951 0702  
                                        u960 0510                                          u880 0028  
                                        u864 02E4                                          u961 050C  
                                        u881 0024                                          u865 02E0  
                                        u970 0530                                          u890 004A  
                                        u874 0346                                          u971 052C  
                                        u891 0046                                          u875 0342  
                                        u980 054C                                          u981 0548  
                                        u990 056C                                          u991 0568  
                        led_initialize@F3047 0057                       _Timer1InterruptHandler 093E  
                                        prod 000FF3                                          tosl 000FFD  
                                        wreg 000FE8                  ?_seven_segment_write_number 003F  
                               ?_led_turn_on 003F                                         l1701 0844  
                                       l1621 0288                                         l1703 085E  
                                       l1711 0820                                         l1623 029A  
                                       l1705 07E6                                         l1801 0438  
                                       l1633 0382                                         l1625 02BC  
                                       l1713 0734                                         l1707 0800  
                                       l1811 0454                                         l1803 044C  
                                       l1651 0052                                         l1643 0012  
                                       l1635 03AC                                         l1627 02C4  
                                       l1619 0284                                         l1715 0734  
                                       l1731 048E                                         l1723 0468  
                                       l1709 0806                                         l1813 0464  
                                       l1805 044E                                         l1653 00B4  
                                       l1645 0016                                         l1629 0326  
                                       l1741 067A                                         l1717 0746  
                                       l1725 0468                                         l1821 017A  
                                       l1815 0466                                         l1807 0450  
                                       l1647 0028                                         l1671 06E4  
                                       l1743 06B0                                         l1735 0660  
                                       l1751 0574                                         l1719 074A  
                                       l1727 047A                                         l1831 01B6  
                                       l1823 0186                                         l1681 04F6  
                                       l1809 0452                                         l1657 0110  
                                       l1649 004A                                         l1673 0706  
                                       l1745 06B2                                         l1737 0660  
                                       l1761 05C6                                         l1753 0574  
                                       l1729 048A                                         l1841 0204  
                                       l1833 01BA                                         l1825 0192  
                                       l1691 054C                                         l1683 0510  
                                       l1659 0152                                         l1675 0706  
                                       l1667 06D2                                         l1747 06C4  
                                       l1739 0672                                         l1771 05FC  
                                       l1763 05D8                                         l1755 0586  
                                       l1851 0274                                         l1843 0216  
                                       l1835 01CA                                         l1827 019E  
                                       l1819 0156                                         l1693 0552  
                                       l1685 0516                                         l1677 0712  
                                       l1669 06D2                                         l1773 0604  
                                       l1757 058E                                         l1853 0278  
                                       l1845 023A                                         l1837 01DC  
                                       l1829 01AA                                         l1695 056C  
                                       l1687 0530                                         l1791 03E6  
                                       l1783 03B0                                         l1863 0396  
                                       l1775 063A                                         l1767 05EA  
                                       l1759 05C4                                         l1847 023E  
                                       l1839 0200                                         l1697 0824  
                                       l1689 0532                                         l1793 03F2  
                                       l1785 03B0                                         l1865 013C  
                                       l1777 063C                                         l1769 05EA  
                                       l1849 0250                                         l1699 083E  
                                       l1795 03FE                                         l1787 03C2  
                                       l1779 064E                                         l1797 040A  
                                       l1789 03C8                                         l1799 0428  
                                       u1000 083E                                         u1001 083A  
                                       u1010 085E                                         u1011 085A  
                                       u1020 0800                                         u1021 07FC  
                                       u1030 0820                                         u1110 05FC  
                                       u1031 081C                                         u1111 05F8  
                                       u1040 0746                                         u1105 05D6  
                                       u1041 0742                                         u1130 03C2  
                                       u1050 047A                                         u1131 03BE  
                                       u1107 05D8                                         u1051 0476  
                                       u1060 048A                                         u1140 01DC  
                                       u1125 064C                                         u1061 0486  
                                       u1141 01D8                                         u1070 0672  
                                       u1150 0216                                         u1071 066E  
                                       u1127 064E                                         u1151 0212  
                                       u1160 0250                                         u1161 024C  
                                       u1090 0586                                         u1091 0582  
                                       u1085 06C2                                         _LATA 000F89  
                                       _LATB 000F8A                                         u1087 06C4  
                                       _LATC 000F8B                                         _LATD 000F8C  
                                       _LATE 000F8D                                         i2l77 0968  
                     ??_gpio_Pin_Write_Logic 0038                                         _main 0156  
               gpio_Pin_Intialize@pin_config 003F                                         fsr2h 000FDA  
                                       indf2 000FDF                                         fsr1l 000FE1  
                                       fsr2l 000FD9                                         btemp 0058  
                     __end_of_led_initialize 06D2                     __end_of_interruptManager 07E6  
                                       prodl 000FF3                                         start 000E  
                              ?_led_turn_off 003F                                 ___param_bank 000000  
                                ?_TIMER0_ISR 0033                                  ?_TIMER1_ISR 0033  
                                      ?_main 0033                                        i2l207 07DA  
                                      i2l275 090A                                        i2l348 08D2  
                                      i2l395 0962                                        _TMR0H 000FD7  
                                      _TMR1H 000FCF                                        _TMR0L 000FD6  
                                      _TMR1L 000FCE                                        _PORTA 000F80  
                                      _PORTB 000F81                                        _PORTC 000F82  
                                      _PORTD 000F83                                        _PORTE 000F84  
                                      _TRISA 000F92                                        _TRISB 000F93  
                                      _TRISC 000F94                                        _TRISD 000F95  
                                      _TRISE 000F96                            ??_Timer0Interrupt 0033  
             gpio_Pin_Write_Logic@pin_config 0035                                   _u16Counter 0047  
                 __end_of_gpio_Pin_Intialize 0734                                        pclath 000FFA  
                                      pclatu 000FFB                                        tablat 000FF5  
                                      ttemp5 0059                                        ttemp6 005C  
                                      ttemp7 0060                                        status 000FD8  
                                      wtemp8 0059                              ?_led_initialize 0043  
                             ??_led_turn_off 0041                     ??_timer1_select_reg_mode 0037  
                            __initialization 0862                                 __end_of_main 0284  
      gpio_Pin_Derction_Intialize@pin_config 0035                                _lat_registers 000B  
                                     ??_main 0047                                __activetblptr 000002  
                           led_turn_on@F3052 0056                            Timer1_Init@_timer 0037  
                                     i2l1133 0964                                       i2l1251 08DE  
                                     i2l1171 0956                                       i2l1253 08F0  
                                     i2l1245 08D4                                       i2l1173 095A  
                                     i2l1261 08A6                                       i2l1247 08D6  
                                     i2l1167 093E                                       i2l1263 08B8  
                                     i2l1255 089C                                       i2l1249 08DA  
                                     i2l1169 0942                                       i2l1257 089E  
                                     i2l1259 08A2                                       i2l1471 079A  
                                     i2l1481 07D6                                       i2l1473 07A8  
                                     i2l1475 07B6                                       i2l1477 07BA  
                                     i2l1479 07C8                                       _LedRed 0030  
                              ??_Timer1_Init 0039                                       _SegObj 0026  
        __end_of_gpio_Pin_Derction_Intialize 0156                  _gpio_Pin_Derction_Intialize 0012  
                                 _TimerDelay 0020                                       clear_0 0888  
                                     isa$std 000001                              _u16DelayCounter 0051  
                               __pdataCOMRAM 0001                                       tblptrh 000FF7  
                                     tblptrl 000FF6                                       tblptru 000FF8  
                  fp__Timer1InterruptHandler 0000                     _timer1_oscillator_enable 0824  
                                 __accesstop 0080                      __end_of__initialization 088E  
                              ___rparam_used 000001                            led_initialize@led 0043  
                             __pcstackCOMRAM 0033                          __end_of_Timer1_Init 0468  
                    ?_Timer1InterruptHandler 0033                         __end_of_led_turn_off 0660  
                    gpio_Pin_Write_Logic@ret 003E                            ?_interruptManager 0033  
                         ??_interruptManager 0033                            led_turn_off@F3057 0055  
                               ??_TIMER0_ISR 0033                                 ??_TIMER1_ISR 0033  
                            _Timer0Interrupt 0964               __end_of_Timer1InterruptHandler 0964  
             gpio_Pin_Derction_Intialize@ret 003D                       _timer1_select_reg_mode 07E6  
                   _seven_segment_initialize 0734               timer1_oscillator_enable@_timer 0035  
                       led_turn_toggle@F3062 0054                                      i2u21_40 0956  
                                    i2u21_41 0952                                      i2u31_40 08F0  
                                    i2u31_41 08EC                                      i2u32_48 08F6  
                                    i2u33_40 08B8                                      i2u32_49 090A  
                                    i2u33_41 08B4                                      i2u34_48 08BE  
                                    i2u34_49 08D2                                      i2u62_40 07A8  
                                    i2u62_41 07A4                                      i2u63_40 07B6  
                                    i2u63_41 07B2                                      i2u64_40 07C8  
                                    i2u64_41 07C4                                      i2u65_40 07D6  
                                    i2u65_41 07D2                  seven_segment_initialize@seg 0043  
                seven_segment_initialize@ret 0045                             ??_led_initialize 0045  
                             _tris_registers 0015                           __end_of_TIMER0_ISR 090C  
                         __end_of_TIMER1_ISR 08D4                                      __Hparam 0000  
                                _Timer1_Init 03B0                                      __Lparam 0000  
                         _gpio_Pin_Intialize 06D2                                      __pcinit 0862  
                                    __ramtop 1000                                      __ptext0 0156  
                                    __ptext1 0468                                      __ptext2 0734  
                                    __ptext3 0574                                      __ptext4 05EA  
                                    __ptext5 0660                                      __ptext6 06D2  
                                    __ptext7 0284                                      __ptext8 0012  
                                    __ptext9 03B0                          ?_gpio_Pin_Intialize 003F  
                                  _T0CONbits 000FD5                                    _T1CONbits 000FCD  
                             __pintcode_body 0790                         end_of_initialization 088E  
                              __Lmediumconst 0000                                      int_func 0790  
                       ??_gpio_Pin_Intialize 0041                      __end_of_Timer0Interrupt 096A  
                                    postdec1 000FE5                                      postdec2 000FDD  
                                    postinc0 000FEE                                      postinc2 000FDE  
                 ??_timer1_oscillator_enable 0037                      _TIMER0_interruptHandler 004F  
                               _led_turn_off 05EA                                    _LedYellow 0031  
                              __pidataCOMRAM 090C                          start_initialization 0862  
                              ??_led_turn_on 0041                 ??_seven_segment_write_number 0042  
                              _ValueOfSecond 0053                              led_turn_off@led 003F  
                           ?_Timer0Interrupt 0033                                    _Timer1Obj 002B  
                 ??_seven_segment_initialize 0045                      ?_timer1_select_reg_mode 0035  
                      gpio_Pin_Intialize@ret 0042                                  __pbssCOMRAM 0047  
                             _preload_timer1 0049                          __end_of_led_turn_on 05EA  
                               ?_Timer1_Init 0037                                    __pintcode 0008  
             __end_of_timer1_select_reg_mode 0824                      _TIMER1_interruptHandler 004B  
               __end_of_gpio_Pin_Write_Logic 03B0             __end_of_timer1_oscillator_enable 0862  
                     led_turn_off@pin_config 0042                     led_initialize@pin_config 0046  
                                   _PIE1bits 000F9D                                     _PIR1bits 000F9E  
               ?_gpio_Pin_Derction_Intialize 0035                                   _ADCON1bits 000FC1  
__end_of_timer1_select_mode_timer_or_counter 0574        ??_timer1_select_mode_timer_or_counter 0037  
       ?_timer1_select_mode_timer_or_counter 0035          _timer1_select_mode_timer_or_counter 04F6  
         __end_of_seven_segment_write_number 04F6                   _seven_segment_write_number 0468  
                                _led_turn_on 0574                                     _LedGreen 0032  
                                  copy_data0 0876                    gpio_Pin_Write_Logic@logic 0037  
                             led_turn_on@led 003F                     ??_Timer1InterruptHandler 0033  
                                   __Hrparam 0000                                     __Lrparam 0000  
           __end_of_seven_segment_initialize 0790                seven_segment_write_number@seg 003F  
              seven_segment_write_number@ret 0042                ??_gpio_Pin_Derction_Intialize 0037  
                              _preload_timer 004D                             _interruptManager 0008  
                                   __ptext10 07E6                                     __ptext11 04F6  
                                   __ptext12 0824                                     __ptext14 089C  
                                   __ptext15 093E                                     __ptext16 08D4  
                                   __ptext17 0964                                     __ptext18 0000  
                       _gpio_Pin_Write_Logic 0284                        led_turn_on@pin_config 0042  
                  ?_timer1_oscillator_enable 0035                                     isa$xinst 000000  
                                   int$flags 0058                 timer1_select_reg_mode@_timer 0035  
           seven_segment_write_number@number 0041                                   _INTCONbits 000FF2  
                                   intlevel2 0000                        ?_gpio_Pin_Write_Logic 0035  
                               _u8ValueOfSeg 001F                                   _TIMER0_ISR 08D4  
                                 _TIMER1_ISR 089C                           fp__Timer0Interrupt 0000  
                             _port_registers 0001                    ?_seven_segment_initialize 0043  
  timer1_select_mode_timer_or_counter@_timer 0035                               _led_initialize 0660  
